Archive member included to satisfy reference by file (symbol)

c:/program files (x86)/atollic/truestudio for arm 8.0.0/armtools/bin/../lib/gcc/arm-atollic-eabi/6.3.1/../../../../arm-atollic-eabi/lib/armv6-m\libc_nano.a(lib_a-init.o)
                              src\startup_stm32f051.o (__libc_init_array)
c:/program files (x86)/atollic/truestudio for arm 8.0.0/armtools/bin/../lib/gcc/arm-atollic-eabi/6.3.1/../../../../arm-atollic-eabi/lib/armv6-m\libc_nano.a(lib_a-memcmp.o)
                              src\grbl\gcode.o (memcmp)
c:/program files (x86)/atollic/truestudio for arm 8.0.0/armtools/bin/../lib/gcc/arm-atollic-eabi/6.3.1/../../../../arm-atollic-eabi/lib/armv6-m\libc_nano.a(lib_a-memcpy-stub.o)
                              src\grbl\gcode.o (memcpy)
c:/program files (x86)/atollic/truestudio for arm 8.0.0/armtools/bin/../lib/gcc/arm-atollic-eabi/6.3.1/../../../../arm-atollic-eabi/lib/armv6-m\libc_nano.a(lib_a-memset.o)
                              src\grbl\gcode.o (memset)
c:/program files (x86)/atollic/truestudio for arm 8.0.0/armtools/bin/../lib/gcc/arm-atollic-eabi/6.3.1/../../../../arm-atollic-eabi/lib/armv6-m\libc_nano.a(lib_a-reent.o)
                              src\syscalls.o (errno)
c:/program files (x86)/atollic/truestudio for arm 8.0.0/armtools/bin/../lib/gcc/arm-atollic-eabi/6.3.1/../../../../arm-atollic-eabi/lib/armv6-m\libc_nano.a(lib_a-strlen.o)
                              src\tiny_printf.o (strlen)
c:/program files (x86)/atollic/truestudio for arm 8.0.0/armtools/bin/../lib/gcc/arm-atollic-eabi/6.3.1/../../../../arm-atollic-eabi/lib/armv6-m\libc_nano.a(lib_a-impure.o)
                              c:/program files (x86)/atollic/truestudio for arm 8.0.0/armtools/bin/../lib/gcc/arm-atollic-eabi/6.3.1/../../../../arm-atollic-eabi/lib/armv6-m\libc_nano.a(lib_a-reent.o) (_impure_ptr)
c:/program files (x86)/atollic/truestudio for arm 8.0.0/armtools/bin/../lib/gcc/arm-atollic-eabi/6.3.1/../../../../arm-atollic-eabi/lib/armv6-m\libc_nano.a(lib_a-nano-freer.o)
                              c:/program files (x86)/atollic/truestudio for arm 8.0.0/armtools/bin/../lib/gcc/arm-atollic-eabi/6.3.1/../../../../arm-atollic-eabi/lib/armv6-m\libc_nano.a(lib_a-reent.o) (_free_r)
c:/program files (x86)/atollic/truestudio for arm 8.0.0/armtools/bin/../lib/gcc/arm-atollic-eabi/6.3.1/../../../../arm-atollic-eabi/lib/armv6-m\libc_nano.a(lib_a-nano-mallocr.o)
                              c:/program files (x86)/atollic/truestudio for arm 8.0.0/armtools/bin/../lib/gcc/arm-atollic-eabi/6.3.1/../../../../arm-atollic-eabi/lib/armv6-m\libc_nano.a(lib_a-nano-freer.o) (__malloc_free_list)
c:/program files (x86)/atollic/truestudio for arm 8.0.0/armtools/bin/../lib/gcc/arm-atollic-eabi/6.3.1/../../../../arm-atollic-eabi/lib/armv6-m\libc_nano.a(lib_a-sbrkr.o)
                              c:/program files (x86)/atollic/truestudio for arm 8.0.0/armtools/bin/../lib/gcc/arm-atollic-eabi/6.3.1/../../../../arm-atollic-eabi/lib/armv6-m\libc_nano.a(lib_a-nano-mallocr.o) (_sbrk_r)
c:/program files (x86)/atollic/truestudio for arm 8.0.0/armtools/bin/../lib/gcc/arm-atollic-eabi/6.3.1/../../../../arm-atollic-eabi/lib/armv6-m\libc_nano.a(lib_a-mlock.o)
                              c:/program files (x86)/atollic/truestudio for arm 8.0.0/armtools/bin/../lib/gcc/arm-atollic-eabi/6.3.1/../../../../arm-atollic-eabi/lib/armv6-m\libc_nano.a(lib_a-nano-freer.o) (__malloc_lock)
c:/program files (x86)/atollic/truestudio for arm 8.0.0/armtools/bin/../lib/gcc/arm-atollic-eabi/6.3.1/../../../../arm-atollic-eabi/lib/armv6-m\libm.a(lib_a-s_lround.o)
                              src\grbl\limits.o (lround)
c:/program files (x86)/atollic/truestudio for arm 8.0.0/armtools/bin/../lib/gcc/arm-atollic-eabi/6.3.1/../../../../arm-atollic-eabi/lib/armv6-m\libm.a(lib_a-s_trunc.o)
                              src\grbl\gcode.o (trunc)
c:/program files (x86)/atollic/truestudio for arm 8.0.0/armtools/bin/../lib/gcc/arm-atollic-eabi/6.3.1/../../../../arm-atollic-eabi/lib/armv6-m\libm.a(lib_a-sf_ceil.o)
                              src\grbl\nuts_bolts.o (ceilf)
c:/program files (x86)/atollic/truestudio for arm 8.0.0/armtools/bin/../lib/gcc/arm-atollic-eabi/6.3.1/../../../../arm-atollic-eabi/lib/armv6-m\libm.a(lib_a-sf_cos.o)
                              src\grbl\motion_control.o (cosf)
c:/program files (x86)/atollic/truestudio for arm 8.0.0/armtools/bin/../lib/gcc/arm-atollic-eabi/6.3.1/../../../../arm-atollic-eabi/lib/armv6-m\libm.a(lib_a-sf_floor.o)
                              src\grbl\motion_control.o (floorf)
c:/program files (x86)/atollic/truestudio for arm 8.0.0/armtools/bin/../lib/gcc/arm-atollic-eabi/6.3.1/../../../../arm-atollic-eabi/lib/armv6-m\libm.a(lib_a-sf_round.o)
                              src\grbl\gcode.o (roundf)
c:/program files (x86)/atollic/truestudio for arm 8.0.0/armtools/bin/../lib/gcc/arm-atollic-eabi/6.3.1/../../../../arm-atollic-eabi/lib/armv6-m\libm.a(lib_a-sf_sin.o)
                              src\grbl\motion_control.o (sinf)
c:/program files (x86)/atollic/truestudio for arm 8.0.0/armtools/bin/../lib/gcc/arm-atollic-eabi/6.3.1/../../../../arm-atollic-eabi/lib/armv6-m\libm.a(lib_a-wf_atan2.o)
                              src\grbl\motion_control.o (atan2f)
c:/program files (x86)/atollic/truestudio for arm 8.0.0/armtools/bin/../lib/gcc/arm-atollic-eabi/6.3.1/../../../../arm-atollic-eabi/lib/armv6-m\libm.a(lib_a-wf_sqrt.o)
                              src\grbl\gcode.o (sqrtf)
c:/program files (x86)/atollic/truestudio for arm 8.0.0/armtools/bin/../lib/gcc/arm-atollic-eabi/6.3.1/../../../../arm-atollic-eabi/lib/armv6-m\libm.a(lib_a-ef_atan2.o)
                              c:/program files (x86)/atollic/truestudio for arm 8.0.0/armtools/bin/../lib/gcc/arm-atollic-eabi/6.3.1/../../../../arm-atollic-eabi/lib/armv6-m\libm.a(lib_a-wf_atan2.o) (__ieee754_atan2f)
c:/program files (x86)/atollic/truestudio for arm 8.0.0/armtools/bin/../lib/gcc/arm-atollic-eabi/6.3.1/../../../../arm-atollic-eabi/lib/armv6-m\libm.a(lib_a-ef_rem_pio2.o)
                              c:/program files (x86)/atollic/truestudio for arm 8.0.0/armtools/bin/../lib/gcc/arm-atollic-eabi/6.3.1/../../../../arm-atollic-eabi/lib/armv6-m\libm.a(lib_a-sf_cos.o) (__ieee754_rem_pio2f)
c:/program files (x86)/atollic/truestudio for arm 8.0.0/armtools/bin/../lib/gcc/arm-atollic-eabi/6.3.1/../../../../arm-atollic-eabi/lib/armv6-m\libm.a(lib_a-ef_sqrt.o)
                              c:/program files (x86)/atollic/truestudio for arm 8.0.0/armtools/bin/../lib/gcc/arm-atollic-eabi/6.3.1/../../../../arm-atollic-eabi/lib/armv6-m\libm.a(lib_a-wf_sqrt.o) (__ieee754_sqrtf)
c:/program files (x86)/atollic/truestudio for arm 8.0.0/armtools/bin/../lib/gcc/arm-atollic-eabi/6.3.1/../../../../arm-atollic-eabi/lib/armv6-m\libm.a(lib_a-kf_cos.o)
                              c:/program files (x86)/atollic/truestudio for arm 8.0.0/armtools/bin/../lib/gcc/arm-atollic-eabi/6.3.1/../../../../arm-atollic-eabi/lib/armv6-m\libm.a(lib_a-sf_cos.o) (__kernel_cosf)
c:/program files (x86)/atollic/truestudio for arm 8.0.0/armtools/bin/../lib/gcc/arm-atollic-eabi/6.3.1/../../../../arm-atollic-eabi/lib/armv6-m\libm.a(lib_a-kf_rem_pio2.o)
                              c:/program files (x86)/atollic/truestudio for arm 8.0.0/armtools/bin/../lib/gcc/arm-atollic-eabi/6.3.1/../../../../arm-atollic-eabi/lib/armv6-m\libm.a(lib_a-ef_rem_pio2.o) (__kernel_rem_pio2f)
c:/program files (x86)/atollic/truestudio for arm 8.0.0/armtools/bin/../lib/gcc/arm-atollic-eabi/6.3.1/../../../../arm-atollic-eabi/lib/armv6-m\libm.a(lib_a-kf_sin.o)
                              c:/program files (x86)/atollic/truestudio for arm 8.0.0/armtools/bin/../lib/gcc/arm-atollic-eabi/6.3.1/../../../../arm-atollic-eabi/lib/armv6-m\libm.a(lib_a-sf_cos.o) (__kernel_sinf)
c:/program files (x86)/atollic/truestudio for arm 8.0.0/armtools/bin/../lib/gcc/arm-atollic-eabi/6.3.1/../../../../arm-atollic-eabi/lib/armv6-m\libm.a(lib_a-s_lib_ver.o)
                              c:/program files (x86)/atollic/truestudio for arm 8.0.0/armtools/bin/../lib/gcc/arm-atollic-eabi/6.3.1/../../../../arm-atollic-eabi/lib/armv6-m\libm.a(lib_a-wf_sqrt.o) (__fdlib_version)
c:/program files (x86)/atollic/truestudio for arm 8.0.0/armtools/bin/../lib/gcc/arm-atollic-eabi/6.3.1/../../../../arm-atollic-eabi/lib/armv6-m\libm.a(lib_a-s_matherr.o)
                              c:/program files (x86)/atollic/truestudio for arm 8.0.0/armtools/bin/../lib/gcc/arm-atollic-eabi/6.3.1/../../../../arm-atollic-eabi/lib/armv6-m\libm.a(lib_a-wf_sqrt.o) (matherr)
c:/program files (x86)/atollic/truestudio for arm 8.0.0/armtools/bin/../lib/gcc/arm-atollic-eabi/6.3.1/../../../../arm-atollic-eabi/lib/armv6-m\libm.a(lib_a-sf_atan.o)
                              c:/program files (x86)/atollic/truestudio for arm 8.0.0/armtools/bin/../lib/gcc/arm-atollic-eabi/6.3.1/../../../../arm-atollic-eabi/lib/armv6-m\libm.a(lib_a-ef_atan2.o) (atanf)
c:/program files (x86)/atollic/truestudio for arm 8.0.0/armtools/bin/../lib/gcc/arm-atollic-eabi/6.3.1/../../../../arm-atollic-eabi/lib/armv6-m\libm.a(lib_a-sf_fabs.o)
                              c:/program files (x86)/atollic/truestudio for arm 8.0.0/armtools/bin/../lib/gcc/arm-atollic-eabi/6.3.1/../../../../arm-atollic-eabi/lib/armv6-m\libm.a(lib_a-ef_atan2.o) (fabsf)
c:/program files (x86)/atollic/truestudio for arm 8.0.0/armtools/bin/../lib/gcc/arm-atollic-eabi/6.3.1/../../../../arm-atollic-eabi/lib/armv6-m\libm.a(lib_a-sf_scalbn.o)
                              c:/program files (x86)/atollic/truestudio for arm 8.0.0/armtools/bin/../lib/gcc/arm-atollic-eabi/6.3.1/../../../../arm-atollic-eabi/lib/armv6-m\libm.a(lib_a-kf_rem_pio2.o) (scalbnf)
c:/program files (x86)/atollic/truestudio for arm 8.0.0/armtools/bin/../lib/gcc/arm-atollic-eabi/6.3.1/../../../../arm-atollic-eabi/lib/armv6-m\libm.a(lib_a-sf_copysign.o)
                              c:/program files (x86)/atollic/truestudio for arm 8.0.0/armtools/bin/../lib/gcc/arm-atollic-eabi/6.3.1/../../../../arm-atollic-eabi/lib/armv6-m\libm.a(lib_a-sf_scalbn.o) (copysignf)
c:/program files (x86)/atollic/truestudio for arm 8.0.0/armtools/bin/../lib/gcc/arm-atollic-eabi/6.3.1/../../../../arm-atollic-eabi/lib/armv6-m\libc_nano.a(lib_a-errno.o)
                              c:/program files (x86)/atollic/truestudio for arm 8.0.0/armtools/bin/../lib/gcc/arm-atollic-eabi/6.3.1/../../../../arm-atollic-eabi/lib/armv6-m\libm.a(lib_a-wf_sqrt.o) (__errno)
c:/program files (x86)/atollic/truestudio for arm 8.0.0/armtools/bin/../lib/gcc/arm-atollic-eabi/6.3.1/armv6-m\libgcc.a(_thumb1_case_uqi.o)
                              c:/program files (x86)/atollic/truestudio for arm 8.0.0/armtools/bin/../lib/gcc/arm-atollic-eabi/6.3.1/../../../../arm-atollic-eabi/lib/armv6-m\libm.a(lib_a-kf_rem_pio2.o) (__gnu_thumb1_case_uqi)
c:/program files (x86)/atollic/truestudio for arm 8.0.0/armtools/bin/../lib/gcc/arm-atollic-eabi/6.3.1/armv6-m\libgcc.a(_udivsi3.o)
                              Drivers\STM32F0xx_StdPeriph_Driver\src\stm32f0xx_rcc.o (__aeabi_uidiv)
c:/program files (x86)/atollic/truestudio for arm 8.0.0/armtools/bin/../lib/gcc/arm-atollic-eabi/6.3.1/armv6-m\libgcc.a(_divsi3.o)
                              src\tiny_printf.o (__aeabi_idiv)
c:/program files (x86)/atollic/truestudio for arm 8.0.0/armtools/bin/../lib/gcc/arm-atollic-eabi/6.3.1/armv6-m\libgcc.a(_dvmd_tls.o)
                              c:/program files (x86)/atollic/truestudio for arm 8.0.0/armtools/bin/../lib/gcc/arm-atollic-eabi/6.3.1/armv6-m\libgcc.a(_udivsi3.o) (__aeabi_idiv0)
c:/program files (x86)/atollic/truestudio for arm 8.0.0/armtools/bin/../lib/gcc/arm-atollic-eabi/6.3.1/armv6-m\libgcc.a(_arm_cmpdf2.o)
                              src\grbl\motion_control.o (__aeabi_dcmple)
c:/program files (x86)/atollic/truestudio for arm 8.0.0/armtools/bin/../lib/gcc/arm-atollic-eabi/6.3.1/armv6-m\libgcc.a(_arm_cmpsf2.o)
                              src\grbl\gcode.o (__aeabi_fcmpeq)
c:/program files (x86)/atollic/truestudio for arm 8.0.0/armtools/bin/../lib/gcc/arm-atollic-eabi/6.3.1/armv6-m\libgcc.a(_fixunssfsi.o)
                              src\grbl\gcode.o (__aeabi_f2uiz)
c:/program files (x86)/atollic/truestudio for arm 8.0.0/armtools/bin/../lib/gcc/arm-atollic-eabi/6.3.1/armv6-m\libgcc.a(_fixunsdfsi.o)
                              src\grbl\gcode.o (__aeabi_d2uiz)
c:/program files (x86)/atollic/truestudio for arm 8.0.0/armtools/bin/../lib/gcc/arm-atollic-eabi/6.3.1/armv6-m\libgcc.a(addsf3.o)
                              src\grbl\gcode.o (__aeabi_fadd)
c:/program files (x86)/atollic/truestudio for arm 8.0.0/armtools/bin/../lib/gcc/arm-atollic-eabi/6.3.1/armv6-m\libgcc.a(divsf3.o)
                              src\grbl\gcode.o (__aeabi_fdiv)
c:/program files (x86)/atollic/truestudio for arm 8.0.0/armtools/bin/../lib/gcc/arm-atollic-eabi/6.3.1/armv6-m\libgcc.a(eqsf2.o)
                              c:/program files (x86)/atollic/truestudio for arm 8.0.0/armtools/bin/../lib/gcc/arm-atollic-eabi/6.3.1/armv6-m\libgcc.a(_arm_cmpsf2.o) (__eqsf2)
c:/program files (x86)/atollic/truestudio for arm 8.0.0/armtools/bin/../lib/gcc/arm-atollic-eabi/6.3.1/armv6-m\libgcc.a(gesf2.o)
                              c:/program files (x86)/atollic/truestudio for arm 8.0.0/armtools/bin/../lib/gcc/arm-atollic-eabi/6.3.1/armv6-m\libgcc.a(_arm_cmpsf2.o) (__gesf2)
c:/program files (x86)/atollic/truestudio for arm 8.0.0/armtools/bin/../lib/gcc/arm-atollic-eabi/6.3.1/armv6-m\libgcc.a(lesf2.o)
                              c:/program files (x86)/atollic/truestudio for arm 8.0.0/armtools/bin/../lib/gcc/arm-atollic-eabi/6.3.1/armv6-m\libgcc.a(_arm_cmpsf2.o) (__lesf2)
c:/program files (x86)/atollic/truestudio for arm 8.0.0/armtools/bin/../lib/gcc/arm-atollic-eabi/6.3.1/armv6-m\libgcc.a(mulsf3.o)
                              src\grbl\gcode.o (__aeabi_fmul)
c:/program files (x86)/atollic/truestudio for arm 8.0.0/armtools/bin/../lib/gcc/arm-atollic-eabi/6.3.1/armv6-m\libgcc.a(subsf3.o)
                              src\grbl\gcode.o (__aeabi_fsub)
c:/program files (x86)/atollic/truestudio for arm 8.0.0/armtools/bin/../lib/gcc/arm-atollic-eabi/6.3.1/armv6-m\libgcc.a(unordsf2.o)
                              c:/program files (x86)/atollic/truestudio for arm 8.0.0/armtools/bin/../lib/gcc/arm-atollic-eabi/6.3.1/../../../../arm-atollic-eabi/lib/armv6-m\libm.a(lib_a-wf_sqrt.o) (__aeabi_fcmpun)
c:/program files (x86)/atollic/truestudio for arm 8.0.0/armtools/bin/../lib/gcc/arm-atollic-eabi/6.3.1/armv6-m\libgcc.a(fixsfsi.o)
                              src\grbl\print.o (__aeabi_f2iz)
c:/program files (x86)/atollic/truestudio for arm 8.0.0/armtools/bin/../lib/gcc/arm-atollic-eabi/6.3.1/armv6-m\libgcc.a(floatsisf.o)
                              src\grbl\gcode.o (__aeabi_i2f)
c:/program files (x86)/atollic/truestudio for arm 8.0.0/armtools/bin/../lib/gcc/arm-atollic-eabi/6.3.1/armv6-m\libgcc.a(floatunsisf.o)
                              src\grbl\limits.o (__aeabi_ui2f)
c:/program files (x86)/atollic/truestudio for arm 8.0.0/armtools/bin/../lib/gcc/arm-atollic-eabi/6.3.1/armv6-m\libgcc.a(adddf3.o)
                              src\grbl\motion_control.o (__aeabi_dadd)
c:/program files (x86)/atollic/truestudio for arm 8.0.0/armtools/bin/../lib/gcc/arm-atollic-eabi/6.3.1/armv6-m\libgcc.a(divdf3.o)
                              c:/program files (x86)/atollic/truestudio for arm 8.0.0/armtools/bin/../lib/gcc/arm-atollic-eabi/6.3.1/../../../../arm-atollic-eabi/lib/armv6-m\libm.a(lib_a-wf_sqrt.o) (__aeabi_ddiv)
c:/program files (x86)/atollic/truestudio for arm 8.0.0/armtools/bin/../lib/gcc/arm-atollic-eabi/6.3.1/armv6-m\libgcc.a(eqdf2.o)
                              c:/program files (x86)/atollic/truestudio for arm 8.0.0/armtools/bin/../lib/gcc/arm-atollic-eabi/6.3.1/armv6-m\libgcc.a(_arm_cmpdf2.o) (__eqdf2)
c:/program files (x86)/atollic/truestudio for arm 8.0.0/armtools/bin/../lib/gcc/arm-atollic-eabi/6.3.1/armv6-m\libgcc.a(gedf2.o)
                              c:/program files (x86)/atollic/truestudio for arm 8.0.0/armtools/bin/../lib/gcc/arm-atollic-eabi/6.3.1/armv6-m\libgcc.a(_arm_cmpdf2.o) (__gedf2)
c:/program files (x86)/atollic/truestudio for arm 8.0.0/armtools/bin/../lib/gcc/arm-atollic-eabi/6.3.1/armv6-m\libgcc.a(ledf2.o)
                              c:/program files (x86)/atollic/truestudio for arm 8.0.0/armtools/bin/../lib/gcc/arm-atollic-eabi/6.3.1/armv6-m\libgcc.a(_arm_cmpdf2.o) (__ledf2)
c:/program files (x86)/atollic/truestudio for arm 8.0.0/armtools/bin/../lib/gcc/arm-atollic-eabi/6.3.1/armv6-m\libgcc.a(subdf3.o)
                              src\grbl\motion_control.o (__aeabi_dsub)
c:/program files (x86)/atollic/truestudio for arm 8.0.0/armtools/bin/../lib/gcc/arm-atollic-eabi/6.3.1/armv6-m\libgcc.a(fixdfsi.o)
                              src\grbl\gcode.o (__aeabi_d2iz)
c:/program files (x86)/atollic/truestudio for arm 8.0.0/armtools/bin/../lib/gcc/arm-atollic-eabi/6.3.1/armv6-m\libgcc.a(extendsfdf2.o)
                              src\grbl\gcode.o (__aeabi_f2d)
c:/program files (x86)/atollic/truestudio for arm 8.0.0/armtools/bin/../lib/gcc/arm-atollic-eabi/6.3.1/armv6-m\libgcc.a(truncdfsf2.o)
                              src\grbl\motion_control.o (__aeabi_d2f)
c:/program files (x86)/atollic/truestudio for arm 8.0.0/armtools/bin/../lib/gcc/arm-atollic-eabi/6.3.1/armv6-m\libgcc.a(_clzsi2.o)
                              c:/program files (x86)/atollic/truestudio for arm 8.0.0/armtools/bin/../lib/gcc/arm-atollic-eabi/6.3.1/armv6-m\libgcc.a(addsf3.o) (__clzsi2)

Allocating common symbols
Common symbol       size              file

sys_rt_exec_motion_override
                    0x1               src\main.o
errno               0x4               c:/program files (x86)/atollic/truestudio for arm 8.0.0/armtools/bin/../lib/gcc/arm-atollic-eabi/6.3.1/../../../../arm-atollic-eabi/lib/armv6-m\libc_nano.a(lib_a-reent.o)
settings            0x6c              src\grbl\settings.o
probe_invert_mask   0x1               src\grbl\probe.o
sys                 0x14              src\main.o
gc_state            0x50              src\grbl\gcode.o
sys_rt_exec_accessory_override
                    0x1               src\main.o
sys_rt_exec_state   0x1               src\main.o
sys_probe_state     0x1               src\main.o
gc_block            0x44              src\grbl\gcode.o
serial_tx_buffer    0x68              src\grbl\serial.o
serial_rx_buffer    0x80              src\grbl\serial.o
sys_probe_position  0x10              src\main.o
sys_position        0x10              src\main.o
sys_rt_exec_alarm   0x1               src\main.o
EE_Buffer           0x400             src\grbl\eeprom.o

Discarded input sections

 .text          0x00000000        0x0 c:/program files (x86)/atollic/truestudio for arm 8.0.0/armtools/bin/../lib/gcc/arm-atollic-eabi/6.3.1/armv6-m/crti.o
 .data          0x00000000        0x0 c:/program files (x86)/atollic/truestudio for arm 8.0.0/armtools/bin/../lib/gcc/arm-atollic-eabi/6.3.1/armv6-m/crti.o
 .bss           0x00000000        0x0 c:/program files (x86)/atollic/truestudio for arm 8.0.0/armtools/bin/../lib/gcc/arm-atollic-eabi/6.3.1/armv6-m/crti.o
 .data          0x00000000        0x4 c:/program files (x86)/atollic/truestudio for arm 8.0.0/armtools/bin/../lib/gcc/arm-atollic-eabi/6.3.1/armv6-m/crtbegin.o
 .text          0x00000000        0x0 Drivers\STM32F0xx_StdPeriph_Driver\src\stm32f0xx_adc.o
 .data          0x00000000        0x0 Drivers\STM32F0xx_StdPeriph_Driver\src\stm32f0xx_adc.o
 .bss           0x00000000        0x0 Drivers\STM32F0xx_StdPeriph_Driver\src\stm32f0xx_adc.o
 .text.ADC_DeInit
                0x00000000       0x34 Drivers\STM32F0xx_StdPeriph_Driver\src\stm32f0xx_adc.o
 .text.ADC_Init
                0x00000000       0x58 Drivers\STM32F0xx_StdPeriph_Driver\src\stm32f0xx_adc.o
 .text.ADC_StructInit
                0x00000000       0x34 Drivers\STM32F0xx_StdPeriph_Driver\src\stm32f0xx_adc.o
 .text.ADC_Cmd  0x00000000       0x38 Drivers\STM32F0xx_StdPeriph_Driver\src\stm32f0xx_adc.o
 .text.ADC_ClockModeConfig
                0x00000000       0x18 Drivers\STM32F0xx_StdPeriph_Driver\src\stm32f0xx_adc.o
 .text.ADC_JitterCmd
                0x00000000       0x3a Drivers\STM32F0xx_StdPeriph_Driver\src\stm32f0xx_adc.o
 .text.ADC_AutoPowerOffCmd
                0x00000000       0x40 Drivers\STM32F0xx_StdPeriph_Driver\src\stm32f0xx_adc.o
 .text.ADC_WaitModeCmd
                0x00000000       0x40 Drivers\STM32F0xx_StdPeriph_Driver\src\stm32f0xx_adc.o
 .text.ADC_AnalogWatchdogCmd
                0x00000000       0x40 Drivers\STM32F0xx_StdPeriph_Driver\src\stm32f0xx_adc.o
 .text.ADC_AnalogWatchdogThresholdsConfig
                0x00000000       0x30 Drivers\STM32F0xx_StdPeriph_Driver\src\stm32f0xx_adc.o
 .text.ADC_AnalogWatchdogSingleChannelConfig
                0x00000000       0x38 Drivers\STM32F0xx_StdPeriph_Driver\src\stm32f0xx_adc.o
 .text.ADC_AnalogWatchdogSingleChannelCmd
                0x00000000       0x40 Drivers\STM32F0xx_StdPeriph_Driver\src\stm32f0xx_adc.o
 .text.ADC_TempSensorCmd
                0x00000000       0x40 Drivers\STM32F0xx_StdPeriph_Driver\src\stm32f0xx_adc.o
 .text.ADC_VrefintCmd
                0x00000000       0x40 Drivers\STM32F0xx_StdPeriph_Driver\src\stm32f0xx_adc.o
 .text.ADC_VbatCmd
                0x00000000       0x40 Drivers\STM32F0xx_StdPeriph_Driver\src\stm32f0xx_adc.o
 .text.ADC_ChannelConfig
                0x00000000       0x3a Drivers\STM32F0xx_StdPeriph_Driver\src\stm32f0xx_adc.o
 .text.ADC_ContinuousModeCmd
                0x00000000       0x40 Drivers\STM32F0xx_StdPeriph_Driver\src\stm32f0xx_adc.o
 .text.ADC_DiscModeCmd
                0x00000000       0x40 Drivers\STM32F0xx_StdPeriph_Driver\src\stm32f0xx_adc.o
 .text.ADC_OverrunModeCmd
                0x00000000       0x40 Drivers\STM32F0xx_StdPeriph_Driver\src\stm32f0xx_adc.o
 .text.ADC_GetCalibrationFactor
                0x00000000       0x60 Drivers\STM32F0xx_StdPeriph_Driver\src\stm32f0xx_adc.o
 .text.ADC_StopOfConversion
                0x00000000       0x1c Drivers\STM32F0xx_StdPeriph_Driver\src\stm32f0xx_adc.o
 .text.ADC_StartOfConversion
                0x00000000       0x1c Drivers\STM32F0xx_StdPeriph_Driver\src\stm32f0xx_adc.o
 .text.ADC_GetConversionValue
                0x00000000       0x16 Drivers\STM32F0xx_StdPeriph_Driver\src\stm32f0xx_adc.o
 .text.ADC_DMACmd
                0x00000000       0x3a Drivers\STM32F0xx_StdPeriph_Driver\src\stm32f0xx_adc.o
 .text.ADC_DMARequestModeConfig
                0x00000000       0x2c Drivers\STM32F0xx_StdPeriph_Driver\src\stm32f0xx_adc.o
 .text.ADC_ITConfig
                0x00000000       0x3a Drivers\STM32F0xx_StdPeriph_Driver\src\stm32f0xx_adc.o
 .text.ADC_GetFlagStatus
                0x00000000       0x60 Drivers\STM32F0xx_StdPeriph_Driver\src\stm32f0xx_adc.o
 .text.ADC_ClearFlag
                0x00000000       0x18 Drivers\STM32F0xx_StdPeriph_Driver\src\stm32f0xx_adc.o
 .text.ADC_GetITStatus
                0x00000000       0x50 Drivers\STM32F0xx_StdPeriph_Driver\src\stm32f0xx_adc.o
 .text.ADC_ClearITPendingBit
                0x00000000       0x18 Drivers\STM32F0xx_StdPeriph_Driver\src\stm32f0xx_adc.o
 .debug_info    0x00000000      0x8e0 Drivers\STM32F0xx_StdPeriph_Driver\src\stm32f0xx_adc.o
 .debug_abbrev  0x00000000      0x183 Drivers\STM32F0xx_StdPeriph_Driver\src\stm32f0xx_adc.o
 .debug_aranges
                0x00000000      0x108 Drivers\STM32F0xx_StdPeriph_Driver\src\stm32f0xx_adc.o
 .debug_ranges  0x00000000       0xf8 Drivers\STM32F0xx_StdPeriph_Driver\src\stm32f0xx_adc.o
 .debug_line    0x00000000      0x45f Drivers\STM32F0xx_StdPeriph_Driver\src\stm32f0xx_adc.o
 .debug_str     0x00000000      0x60c Drivers\STM32F0xx_StdPeriph_Driver\src\stm32f0xx_adc.o
 .comment       0x00000000       0x7d Drivers\STM32F0xx_StdPeriph_Driver\src\stm32f0xx_adc.o
 .debug_frame   0x00000000      0x3d0 Drivers\STM32F0xx_StdPeriph_Driver\src\stm32f0xx_adc.o
 .ARM.attributes
                0x00000000       0x31 Drivers\STM32F0xx_StdPeriph_Driver\src\stm32f0xx_adc.o
 .text          0x00000000        0x0 Drivers\STM32F0xx_StdPeriph_Driver\src\stm32f0xx_can.o
 .data          0x00000000        0x0 Drivers\STM32F0xx_StdPeriph_Driver\src\stm32f0xx_can.o
 .bss           0x00000000        0x0 Drivers\STM32F0xx_StdPeriph_Driver\src\stm32f0xx_can.o
 .text.CAN_DeInit
                0x00000000       0x28 Drivers\STM32F0xx_StdPeriph_Driver\src\stm32f0xx_can.o
 .text.CAN_Init
                0x00000000      0x1c4 Drivers\STM32F0xx_StdPeriph_Driver\src\stm32f0xx_can.o
 .text.CAN_FilterInit
                0x00000000      0x1a0 Drivers\STM32F0xx_StdPeriph_Driver\src\stm32f0xx_can.o
 .text.CAN_StructInit
                0x00000000       0x52 Drivers\STM32F0xx_StdPeriph_Driver\src\stm32f0xx_can.o
 .text.CAN_SlaveStartBank
                0x00000000       0x74 Drivers\STM32F0xx_StdPeriph_Driver\src\stm32f0xx_can.o
 .text.CAN_DBGFreeze
                0x00000000       0x40 Drivers\STM32F0xx_StdPeriph_Driver\src\stm32f0xx_can.o
 .text.CAN_TTComModeCmd
                0x00000000       0xc8 Drivers\STM32F0xx_StdPeriph_Driver\src\stm32f0xx_can.o
 .text.CAN_Transmit
                0x00000000      0x1f2 Drivers\STM32F0xx_StdPeriph_Driver\src\stm32f0xx_can.o
 .text.CAN_TransmitStatus
                0x00000000       0xd4 Drivers\STM32F0xx_StdPeriph_Driver\src\stm32f0xx_can.o
 .text.CAN_CancelTransmit
                0x00000000       0x56 Drivers\STM32F0xx_StdPeriph_Driver\src\stm32f0xx_can.o
 .text.CAN_Receive
                0x00000000      0x1c0 Drivers\STM32F0xx_StdPeriph_Driver\src\stm32f0xx_can.o
 .text.CAN_FIFORelease
                0x00000000       0x38 Drivers\STM32F0xx_StdPeriph_Driver\src\stm32f0xx_can.o
 .text.CAN_MessagePending
                0x00000000       0x60 Drivers\STM32F0xx_StdPeriph_Driver\src\stm32f0xx_can.o
 .text.CAN_OperatingModeRequest
                0x00000000      0x124 Drivers\STM32F0xx_StdPeriph_Driver\src\stm32f0xx_can.o
 .text.CAN_Sleep
                0x00000000       0x42 Drivers\STM32F0xx_StdPeriph_Driver\src\stm32f0xx_can.o
 .text.CAN_WakeUp
                0x00000000       0x64 Drivers\STM32F0xx_StdPeriph_Driver\src\stm32f0xx_can.o
 .text.CAN_GetLastErrorCode
                0x00000000       0x2e Drivers\STM32F0xx_StdPeriph_Driver\src\stm32f0xx_can.o
 .text.CAN_GetReceiveErrorCounter
                0x00000000       0x2a Drivers\STM32F0xx_StdPeriph_Driver\src\stm32f0xx_can.o
 .text.CAN_GetLSBTransmitErrorCounter
                0x00000000       0x2a Drivers\STM32F0xx_StdPeriph_Driver\src\stm32f0xx_can.o
 .text.CAN_ITConfig
                0x00000000       0x3a Drivers\STM32F0xx_StdPeriph_Driver\src\stm32f0xx_can.o
 .text.CAN_GetFlagStatus
                0x00000000       0xf0 Drivers\STM32F0xx_StdPeriph_Driver\src\stm32f0xx_can.o
 .text.CAN_ClearFlag
                0x00000000       0x70 Drivers\STM32F0xx_StdPeriph_Driver\src\stm32f0xx_can.o
 .text.CAN_GetITStatus
                0x00000000      0x1f0 Drivers\STM32F0xx_StdPeriph_Driver\src\stm32f0xx_can.o
 .text.CAN_ClearITPendingBit
                0x00000000       0xec Drivers\STM32F0xx_StdPeriph_Driver\src\stm32f0xx_can.o
 .text.CheckITStatus
                0x00000000       0x3a Drivers\STM32F0xx_StdPeriph_Driver\src\stm32f0xx_can.o
 .debug_info    0x00000000      0xb88 Drivers\STM32F0xx_StdPeriph_Driver\src\stm32f0xx_can.o
 .debug_abbrev  0x00000000      0x1f5 Drivers\STM32F0xx_StdPeriph_Driver\src\stm32f0xx_can.o
 .debug_aranges
                0x00000000       0xe0 Drivers\STM32F0xx_StdPeriph_Driver\src\stm32f0xx_can.o
 .debug_ranges  0x00000000       0xd0 Drivers\STM32F0xx_StdPeriph_Driver\src\stm32f0xx_can.o
 .debug_line    0x00000000      0x54b Drivers\STM32F0xx_StdPeriph_Driver\src\stm32f0xx_can.o
 .debug_str     0x00000000      0x768 Drivers\STM32F0xx_StdPeriph_Driver\src\stm32f0xx_can.o
 .comment       0x00000000       0x7d Drivers\STM32F0xx_StdPeriph_Driver\src\stm32f0xx_can.o
 .debug_frame   0x00000000      0x330 Drivers\STM32F0xx_StdPeriph_Driver\src\stm32f0xx_can.o
 .ARM.attributes
                0x00000000       0x31 Drivers\STM32F0xx_StdPeriph_Driver\src\stm32f0xx_can.o
 .text          0x00000000        0x0 Drivers\STM32F0xx_StdPeriph_Driver\src\stm32f0xx_cec.o
 .data          0x00000000        0x0 Drivers\STM32F0xx_StdPeriph_Driver\src\stm32f0xx_cec.o
 .bss           0x00000000        0x0 Drivers\STM32F0xx_StdPeriph_Driver\src\stm32f0xx_cec.o
 .text.CEC_DeInit
                0x00000000       0x22 Drivers\STM32F0xx_StdPeriph_Driver\src\stm32f0xx_cec.o
 .text.CEC_Init
                0x00000000       0x60 Drivers\STM32F0xx_StdPeriph_Driver\src\stm32f0xx_cec.o
 .text.CEC_StructInit
                0x00000000       0x3a Drivers\STM32F0xx_StdPeriph_Driver\src\stm32f0xx_cec.o
 .text.CEC_Cmd  0x00000000       0x3c Drivers\STM32F0xx_StdPeriph_Driver\src\stm32f0xx_cec.o
 .text.CEC_ListenModeCmd
                0x00000000       0x3c Drivers\STM32F0xx_StdPeriph_Driver\src\stm32f0xx_cec.o
 .text.CEC_OwnAddressConfig
                0x00000000       0x38 Drivers\STM32F0xx_StdPeriph_Driver\src\stm32f0xx_cec.o
 .text.CEC_OwnAddressClear
                0x00000000       0x14 Drivers\STM32F0xx_StdPeriph_Driver\src\stm32f0xx_cec.o
 .text.CEC_SendData
                0x00000000       0x20 Drivers\STM32F0xx_StdPeriph_Driver\src\stm32f0xx_cec.o
 .text.CEC_ReceiveData
                0x00000000       0x14 Drivers\STM32F0xx_StdPeriph_Driver\src\stm32f0xx_cec.o
 .text.CEC_StartOfMessage
                0x00000000       0x1c Drivers\STM32F0xx_StdPeriph_Driver\src\stm32f0xx_cec.o
 .text.CEC_EndOfMessage
                0x00000000       0x1c Drivers\STM32F0xx_StdPeriph_Driver\src\stm32f0xx_cec.o
 .text.CEC_ITConfig
                0x00000000       0x50 Drivers\STM32F0xx_StdPeriph_Driver\src\stm32f0xx_cec.o
 .text.CEC_GetFlagStatus
                0x00000000       0x44 Drivers\STM32F0xx_StdPeriph_Driver\src\stm32f0xx_cec.o
 .text.CEC_ClearFlag
                0x00000000       0x1c Drivers\STM32F0xx_StdPeriph_Driver\src\stm32f0xx_cec.o
 .text.CEC_GetITStatus
                0x00000000       0x5c Drivers\STM32F0xx_StdPeriph_Driver\src\stm32f0xx_cec.o
 .text.CEC_ClearITPendingBit
                0x00000000       0x20 Drivers\STM32F0xx_StdPeriph_Driver\src\stm32f0xx_cec.o
 .debug_info    0x00000000      0x444 Drivers\STM32F0xx_StdPeriph_Driver\src\stm32f0xx_cec.o
 .debug_abbrev  0x00000000      0x1b2 Drivers\STM32F0xx_StdPeriph_Driver\src\stm32f0xx_cec.o
 .debug_aranges
                0x00000000       0x98 Drivers\STM32F0xx_StdPeriph_Driver\src\stm32f0xx_cec.o
 .debug_ranges  0x00000000       0x88 Drivers\STM32F0xx_StdPeriph_Driver\src\stm32f0xx_cec.o
 .debug_line    0x00000000      0x31d Drivers\STM32F0xx_StdPeriph_Driver\src\stm32f0xx_cec.o
 .debug_str     0x00000000      0x407 Drivers\STM32F0xx_StdPeriph_Driver\src\stm32f0xx_cec.o
 .comment       0x00000000       0x7d Drivers\STM32F0xx_StdPeriph_Driver\src\stm32f0xx_cec.o
 .debug_frame   0x00000000      0x1fc Drivers\STM32F0xx_StdPeriph_Driver\src\stm32f0xx_cec.o
 .ARM.attributes
                0x00000000       0x31 Drivers\STM32F0xx_StdPeriph_Driver\src\stm32f0xx_cec.o
 .text          0x00000000        0x0 Drivers\STM32F0xx_StdPeriph_Driver\src\stm32f0xx_comp.o
 .data          0x00000000        0x0 Drivers\STM32F0xx_StdPeriph_Driver\src\stm32f0xx_comp.o
 .bss           0x00000000        0x0 Drivers\STM32F0xx_StdPeriph_Driver\src\stm32f0xx_comp.o
 .text.COMP_DeInit
                0x00000000       0x14 Drivers\STM32F0xx_StdPeriph_Driver\src\stm32f0xx_comp.o
 .text.COMP_Init
                0x00000000       0x64 Drivers\STM32F0xx_StdPeriph_Driver\src\stm32f0xx_comp.o
 .text.COMP_StructInit
                0x00000000       0x2e Drivers\STM32F0xx_StdPeriph_Driver\src\stm32f0xx_comp.o
 .text.COMP_Cmd
                0x00000000       0x4c Drivers\STM32F0xx_StdPeriph_Driver\src\stm32f0xx_comp.o
 .text.COMP_SwitchCmd
                0x00000000       0x3c Drivers\STM32F0xx_StdPeriph_Driver\src\stm32f0xx_comp.o
 .text.COMP_GetOutputLevel
                0x00000000       0x38 Drivers\STM32F0xx_StdPeriph_Driver\src\stm32f0xx_comp.o
 .text.COMP_WindowCmd
                0x00000000       0x40 Drivers\STM32F0xx_StdPeriph_Driver\src\stm32f0xx_comp.o
 .text.COMP_LockConfig
                0x00000000       0x28 Drivers\STM32F0xx_StdPeriph_Driver\src\stm32f0xx_comp.o
 .debug_info    0x00000000      0x288 Drivers\STM32F0xx_StdPeriph_Driver\src\stm32f0xx_comp.o
 .debug_abbrev  0x00000000      0x159 Drivers\STM32F0xx_StdPeriph_Driver\src\stm32f0xx_comp.o
 .debug_aranges
                0x00000000       0x58 Drivers\STM32F0xx_StdPeriph_Driver\src\stm32f0xx_comp.o
 .debug_ranges  0x00000000       0x48 Drivers\STM32F0xx_StdPeriph_Driver\src\stm32f0xx_comp.o
 .debug_line    0x00000000      0x27a Drivers\STM32F0xx_StdPeriph_Driver\src\stm32f0xx_comp.o
 .debug_str     0x00000000      0x2de Drivers\STM32F0xx_StdPeriph_Driver\src\stm32f0xx_comp.o
 .comment       0x00000000       0x7d Drivers\STM32F0xx_StdPeriph_Driver\src\stm32f0xx_comp.o
 .debug_frame   0x00000000      0x10c Drivers\STM32F0xx_StdPeriph_Driver\src\stm32f0xx_comp.o
 .ARM.attributes
                0x00000000       0x31 Drivers\STM32F0xx_StdPeriph_Driver\src\stm32f0xx_comp.o
 .text          0x00000000        0x0 Drivers\STM32F0xx_StdPeriph_Driver\src\stm32f0xx_crc.o
 .data          0x00000000        0x0 Drivers\STM32F0xx_StdPeriph_Driver\src\stm32f0xx_crc.o
 .bss           0x00000000        0x0 Drivers\STM32F0xx_StdPeriph_Driver\src\stm32f0xx_crc.o
 .text.CRC_DeInit
                0x00000000       0x34 Drivers\STM32F0xx_StdPeriph_Driver\src\stm32f0xx_crc.o
 .text.CRC_ResetDR
                0x00000000       0x1c Drivers\STM32F0xx_StdPeriph_Driver\src\stm32f0xx_crc.o
 .text.CRC_PolynomialSizeSelect
                0x00000000       0x34 Drivers\STM32F0xx_StdPeriph_Driver\src\stm32f0xx_crc.o
 .text.CRC_ReverseInputDataSelect
                0x00000000       0x34 Drivers\STM32F0xx_StdPeriph_Driver\src\stm32f0xx_crc.o
 .text.CRC_ReverseOutputDataCmd
                0x00000000       0x3c Drivers\STM32F0xx_StdPeriph_Driver\src\stm32f0xx_crc.o
 .text.CRC_SetInitRegister
                0x00000000       0x1c Drivers\STM32F0xx_StdPeriph_Driver\src\stm32f0xx_crc.o
 .text.CRC_SetPolynomial
                0x00000000       0x1c Drivers\STM32F0xx_StdPeriph_Driver\src\stm32f0xx_crc.o
 .text.CRC_CalcCRC
                0x00000000       0x20 Drivers\STM32F0xx_StdPeriph_Driver\src\stm32f0xx_crc.o
 .text.CRC_CalcCRC16bits
                0x00000000       0x24 Drivers\STM32F0xx_StdPeriph_Driver\src\stm32f0xx_crc.o
 .text.CRC_CalcCRC8bits
                0x00000000       0x24 Drivers\STM32F0xx_StdPeriph_Driver\src\stm32f0xx_crc.o
 .text.CRC_CalcBlockCRC
                0x00000000       0x40 Drivers\STM32F0xx_StdPeriph_Driver\src\stm32f0xx_crc.o
 .text.CRC_GetCRC
                0x00000000       0x14 Drivers\STM32F0xx_StdPeriph_Driver\src\stm32f0xx_crc.o
 .text.CRC_SetIDRegister
                0x00000000       0x20 Drivers\STM32F0xx_StdPeriph_Driver\src\stm32f0xx_crc.o
 .text.CRC_GetIDRegister
                0x00000000       0x14 Drivers\STM32F0xx_StdPeriph_Driver\src\stm32f0xx_crc.o
 .debug_info    0x00000000      0x37a Drivers\STM32F0xx_StdPeriph_Driver\src\stm32f0xx_crc.o
 .debug_abbrev  0x00000000      0x182 Drivers\STM32F0xx_StdPeriph_Driver\src\stm32f0xx_crc.o
 .debug_aranges
                0x00000000       0x88 Drivers\STM32F0xx_StdPeriph_Driver\src\stm32f0xx_crc.o
 .debug_ranges  0x00000000       0x78 Drivers\STM32F0xx_StdPeriph_Driver\src\stm32f0xx_crc.o
 .debug_line    0x00000000      0x2ae Drivers\STM32F0xx_StdPeriph_Driver\src\stm32f0xx_crc.o
 .debug_str     0x00000000      0x392 Drivers\STM32F0xx_StdPeriph_Driver\src\stm32f0xx_crc.o
 .comment       0x00000000       0x7d Drivers\STM32F0xx_StdPeriph_Driver\src\stm32f0xx_crc.o
 .debug_frame   0x00000000      0x1c0 Drivers\STM32F0xx_StdPeriph_Driver\src\stm32f0xx_crc.o
 .ARM.attributes
                0x00000000       0x31 Drivers\STM32F0xx_StdPeriph_Driver\src\stm32f0xx_crc.o
 .text          0x00000000        0x0 Drivers\STM32F0xx_StdPeriph_Driver\src\stm32f0xx_crs.o
 .data          0x00000000        0x0 Drivers\STM32F0xx_StdPeriph_Driver\src\stm32f0xx_crs.o
 .bss           0x00000000        0x0 Drivers\STM32F0xx_StdPeriph_Driver\src\stm32f0xx_crs.o
 .text.CRS_DeInit
                0x00000000       0x22 Drivers\STM32F0xx_StdPeriph_Driver\src\stm32f0xx_crs.o
 .text.CRS_AdjustHSI48CalibrationValue
                0x00000000       0x38 Drivers\STM32F0xx_StdPeriph_Driver\src\stm32f0xx_crs.o
 .text.CRS_FrequencyErrorCounterCmd
                0x00000000       0x3c Drivers\STM32F0xx_StdPeriph_Driver\src\stm32f0xx_crs.o
 .text.CRS_AutomaticCalibrationCmd
                0x00000000       0x3c Drivers\STM32F0xx_StdPeriph_Driver\src\stm32f0xx_crs.o
 .text.CRS_SoftwareSynchronizationGenerate
                0x00000000       0x1c Drivers\STM32F0xx_StdPeriph_Driver\src\stm32f0xx_crs.o
 .text.CRS_FrequencyErrorCounterReload
                0x00000000       0x2c Drivers\STM32F0xx_StdPeriph_Driver\src\stm32f0xx_crs.o
 .text.CRS_FrequencyErrorLimitConfig
                0x00000000       0x38 Drivers\STM32F0xx_StdPeriph_Driver\src\stm32f0xx_crs.o
 .text.CRS_SynchronizationPrescalerConfig
                0x00000000       0x30 Drivers\STM32F0xx_StdPeriph_Driver\src\stm32f0xx_crs.o
 .text.CRS_SynchronizationSourceConfig
                0x00000000       0x30 Drivers\STM32F0xx_StdPeriph_Driver\src\stm32f0xx_crs.o
 .text.CRS_SynchronizationPolarityConfig
                0x00000000       0x2c Drivers\STM32F0xx_StdPeriph_Driver\src\stm32f0xx_crs.o
 .text.CRS_GetReloadValue
                0x00000000       0x18 Drivers\STM32F0xx_StdPeriph_Driver\src\stm32f0xx_crs.o
 .text.CRS_GetHSI48CalibrationValue
                0x00000000       0x18 Drivers\STM32F0xx_StdPeriph_Driver\src\stm32f0xx_crs.o
 .text.CRS_GetFrequencyErrorValue
                0x00000000       0x18 Drivers\STM32F0xx_StdPeriph_Driver\src\stm32f0xx_crs.o
 .text.CRS_GetFrequencyErrorDirection
                0x00000000       0x18 Drivers\STM32F0xx_StdPeriph_Driver\src\stm32f0xx_crs.o
 .text.CRS_ITConfig
                0x00000000       0x40 Drivers\STM32F0xx_StdPeriph_Driver\src\stm32f0xx_crs.o
 .text.CRS_GetFlagStatus
                0x00000000       0x24 Drivers\STM32F0xx_StdPeriph_Driver\src\stm32f0xx_crs.o
 .text.CRS_ClearFlag
                0x00000000       0x38 Drivers\STM32F0xx_StdPeriph_Driver\src\stm32f0xx_crs.o
 .text.CRS_GetITStatus
                0x00000000       0x24 Drivers\STM32F0xx_StdPeriph_Driver\src\stm32f0xx_crs.o
 .text.CRS_ClearITPendingBit
                0x00000000       0x38 Drivers\STM32F0xx_StdPeriph_Driver\src\stm32f0xx_crs.o
 .debug_info    0x00000000      0x3c1 Drivers\STM32F0xx_StdPeriph_Driver\src\stm32f0xx_crs.o
 .debug_abbrev  0x00000000      0x160 Drivers\STM32F0xx_StdPeriph_Driver\src\stm32f0xx_crs.o
 .debug_aranges
                0x00000000       0xb0 Drivers\STM32F0xx_StdPeriph_Driver\src\stm32f0xx_crs.o
 .debug_ranges  0x00000000       0xa0 Drivers\STM32F0xx_StdPeriph_Driver\src\stm32f0xx_crs.o
 .debug_line    0x00000000      0x2f9 Drivers\STM32F0xx_StdPeriph_Driver\src\stm32f0xx_crs.o
 .debug_str     0x00000000      0x470 Drivers\STM32F0xx_StdPeriph_Driver\src\stm32f0xx_crs.o
 .comment       0x00000000       0x7d Drivers\STM32F0xx_StdPeriph_Driver\src\stm32f0xx_crs.o
 .debug_frame   0x00000000      0x258 Drivers\STM32F0xx_StdPeriph_Driver\src\stm32f0xx_crs.o
 .ARM.attributes
                0x00000000       0x31 Drivers\STM32F0xx_StdPeriph_Driver\src\stm32f0xx_crs.o
 .text          0x00000000        0x0 Drivers\STM32F0xx_StdPeriph_Driver\src\stm32f0xx_dac.o
 .data          0x00000000        0x0 Drivers\STM32F0xx_StdPeriph_Driver\src\stm32f0xx_dac.o
 .bss           0x00000000        0x0 Drivers\STM32F0xx_StdPeriph_Driver\src\stm32f0xx_dac.o
 .text.DAC_DeInit
                0x00000000       0x22 Drivers\STM32F0xx_StdPeriph_Driver\src\stm32f0xx_dac.o
 .text.DAC_Init
                0x00000000       0x64 Drivers\STM32F0xx_StdPeriph_Driver\src\stm32f0xx_dac.o
 .text.DAC_StructInit
                0x00000000       0x28 Drivers\STM32F0xx_StdPeriph_Driver\src\stm32f0xx_dac.o
 .text.DAC_Cmd  0x00000000       0x4c Drivers\STM32F0xx_StdPeriph_Driver\src\stm32f0xx_dac.o
 .text.DAC_SoftwareTriggerCmd
                0x00000000       0x50 Drivers\STM32F0xx_StdPeriph_Driver\src\stm32f0xx_dac.o
 .text.DAC_DualSoftwareTriggerCmd
                0x00000000       0x3c Drivers\STM32F0xx_StdPeriph_Driver\src\stm32f0xx_dac.o
 .text.DAC_WaveGenerationCmd
                0x00000000       0x4c Drivers\STM32F0xx_StdPeriph_Driver\src\stm32f0xx_dac.o
 .text.DAC_SetChannel1Data
                0x00000000       0x34 Drivers\STM32F0xx_StdPeriph_Driver\src\stm32f0xx_dac.o
 .text.DAC_SetChannel2Data
                0x00000000       0x34 Drivers\STM32F0xx_StdPeriph_Driver\src\stm32f0xx_dac.o
 .text.DAC_SetDualChannelData
                0x00000000       0x64 Drivers\STM32F0xx_StdPeriph_Driver\src\stm32f0xx_dac.o
 .text.DAC_GetDataOutputValue
                0x00000000       0x30 Drivers\STM32F0xx_StdPeriph_Driver\src\stm32f0xx_dac.o
 .text.DAC_DMACmd
                0x00000000       0x50 Drivers\STM32F0xx_StdPeriph_Driver\src\stm32f0xx_dac.o
 .text.DAC_ITConfig
                0x00000000       0x4c Drivers\STM32F0xx_StdPeriph_Driver\src\stm32f0xx_dac.o
 .text.DAC_GetFlagStatus
                0x00000000       0x48 Drivers\STM32F0xx_StdPeriph_Driver\src\stm32f0xx_dac.o
 .text.DAC_ClearFlag
                0x00000000       0x24 Drivers\STM32F0xx_StdPeriph_Driver\src\stm32f0xx_dac.o
 .text.DAC_GetITStatus
                0x00000000       0x60 Drivers\STM32F0xx_StdPeriph_Driver\src\stm32f0xx_dac.o
 .text.DAC_ClearITPendingBit
                0x00000000       0x24 Drivers\STM32F0xx_StdPeriph_Driver\src\stm32f0xx_dac.o
 .debug_info    0x00000000      0x62a Drivers\STM32F0xx_StdPeriph_Driver\src\stm32f0xx_dac.o
 .debug_abbrev  0x00000000      0x180 Drivers\STM32F0xx_StdPeriph_Driver\src\stm32f0xx_dac.o
 .debug_aranges
                0x00000000       0xa0 Drivers\STM32F0xx_StdPeriph_Driver\src\stm32f0xx_dac.o
 .debug_ranges  0x00000000       0x90 Drivers\STM32F0xx_StdPeriph_Driver\src\stm32f0xx_dac.o
 .debug_line    0x00000000      0x33d Drivers\STM32F0xx_StdPeriph_Driver\src\stm32f0xx_dac.o
 .debug_str     0x00000000      0x47d Drivers\STM32F0xx_StdPeriph_Driver\src\stm32f0xx_dac.o
 .comment       0x00000000       0x7d Drivers\STM32F0xx_StdPeriph_Driver\src\stm32f0xx_dac.o
 .debug_frame   0x00000000      0x22c Drivers\STM32F0xx_StdPeriph_Driver\src\stm32f0xx_dac.o
 .ARM.attributes
                0x00000000       0x31 Drivers\STM32F0xx_StdPeriph_Driver\src\stm32f0xx_dac.o
 .text          0x00000000        0x0 Drivers\STM32F0xx_StdPeriph_Driver\src\stm32f0xx_dbgmcu.o
 .data          0x00000000        0x0 Drivers\STM32F0xx_StdPeriph_Driver\src\stm32f0xx_dbgmcu.o
 .bss           0x00000000        0x0 Drivers\STM32F0xx_StdPeriph_Driver\src\stm32f0xx_dbgmcu.o
 .text.DBGMCU_GetREVID
                0x00000000       0x14 Drivers\STM32F0xx_StdPeriph_Driver\src\stm32f0xx_dbgmcu.o
 .text.DBGMCU_GetDEVID
                0x00000000       0x18 Drivers\STM32F0xx_StdPeriph_Driver\src\stm32f0xx_dbgmcu.o
 .text.DBGMCU_Config
                0x00000000       0x40 Drivers\STM32F0xx_StdPeriph_Driver\src\stm32f0xx_dbgmcu.o
 .text.DBGMCU_APB1PeriphConfig
                0x00000000       0x40 Drivers\STM32F0xx_StdPeriph_Driver\src\stm32f0xx_dbgmcu.o
 .text.DBGMCU_APB2PeriphConfig
                0x00000000       0x40 Drivers\STM32F0xx_StdPeriph_Driver\src\stm32f0xx_dbgmcu.o
 .debug_info    0x00000000      0x1c8 Drivers\STM32F0xx_StdPeriph_Driver\src\stm32f0xx_dbgmcu.o
 .debug_abbrev  0x00000000       0xe2 Drivers\STM32F0xx_StdPeriph_Driver\src\stm32f0xx_dbgmcu.o
 .debug_aranges
                0x00000000       0x40 Drivers\STM32F0xx_StdPeriph_Driver\src\stm32f0xx_dbgmcu.o
 .debug_ranges  0x00000000       0x30 Drivers\STM32F0xx_StdPeriph_Driver\src\stm32f0xx_dbgmcu.o
 .debug_line    0x00000000      0x1f3 Drivers\STM32F0xx_StdPeriph_Driver\src\stm32f0xx_dbgmcu.o
 .debug_str     0x00000000      0x26a Drivers\STM32F0xx_StdPeriph_Driver\src\stm32f0xx_dbgmcu.o
 .comment       0x00000000       0x7d Drivers\STM32F0xx_StdPeriph_Driver\src\stm32f0xx_dbgmcu.o
 .debug_frame   0x00000000       0xa8 Drivers\STM32F0xx_StdPeriph_Driver\src\stm32f0xx_dbgmcu.o
 .ARM.attributes
                0x00000000       0x31 Drivers\STM32F0xx_StdPeriph_Driver\src\stm32f0xx_dbgmcu.o
 .text          0x00000000        0x0 Drivers\STM32F0xx_StdPeriph_Driver\src\stm32f0xx_dma.o
 .data          0x00000000        0x0 Drivers\STM32F0xx_StdPeriph_Driver\src\stm32f0xx_dma.o
 .bss           0x00000000        0x0 Drivers\STM32F0xx_StdPeriph_Driver\src\stm32f0xx_dma.o
 .text.DMA_DeInit
                0x00000000      0x188 Drivers\STM32F0xx_StdPeriph_Driver\src\stm32f0xx_dma.o
 .text.DMA_Init
                0x00000000       0x7c Drivers\STM32F0xx_StdPeriph_Driver\src\stm32f0xx_dma.o
 .text.DMA_StructInit
                0x00000000       0x52 Drivers\STM32F0xx_StdPeriph_Driver\src\stm32f0xx_dma.o
 .text.DMA_Cmd  0x00000000       0x3c Drivers\STM32F0xx_StdPeriph_Driver\src\stm32f0xx_dma.o
 .text.DMA_RemapConfig
                0x00000000       0x42 Drivers\STM32F0xx_StdPeriph_Driver\src\stm32f0xx_dma.o
 .text.DMA_SetCurrDataCounter
                0x00000000       0x1e Drivers\STM32F0xx_StdPeriph_Driver\src\stm32f0xx_dma.o
 .text.DMA_GetCurrDataCounter
                0x00000000       0x16 Drivers\STM32F0xx_StdPeriph_Driver\src\stm32f0xx_dma.o
 .text.DMA_ITConfig
                0x00000000       0x3a Drivers\STM32F0xx_StdPeriph_Driver\src\stm32f0xx_dma.o
 .text.DMA_GetFlagStatus
                0x00000000       0x5c Drivers\STM32F0xx_StdPeriph_Driver\src\stm32f0xx_dma.o
 .text.DMA_ClearFlag
                0x00000000       0x30 Drivers\STM32F0xx_StdPeriph_Driver\src\stm32f0xx_dma.o
 .text.DMA_GetITStatus
                0x00000000       0x5c Drivers\STM32F0xx_StdPeriph_Driver\src\stm32f0xx_dma.o
 .text.DMA_ClearITPendingBit
                0x00000000       0x30 Drivers\STM32F0xx_StdPeriph_Driver\src\stm32f0xx_dma.o
 .debug_info    0x00000000      0x4c4 Drivers\STM32F0xx_StdPeriph_Driver\src\stm32f0xx_dma.o
 .debug_abbrev  0x00000000      0x183 Drivers\STM32F0xx_StdPeriph_Driver\src\stm32f0xx_dma.o
 .debug_aranges
                0x00000000       0x78 Drivers\STM32F0xx_StdPeriph_Driver\src\stm32f0xx_dma.o
 .debug_ranges  0x00000000       0x68 Drivers\STM32F0xx_StdPeriph_Driver\src\stm32f0xx_dma.o
 .debug_line    0x00000000      0x333 Drivers\STM32F0xx_StdPeriph_Driver\src\stm32f0xx_dma.o
 .debug_str     0x00000000      0x42c Drivers\STM32F0xx_StdPeriph_Driver\src\stm32f0xx_dma.o
 .comment       0x00000000       0x7d Drivers\STM32F0xx_StdPeriph_Driver\src\stm32f0xx_dma.o
 .debug_frame   0x00000000      0x190 Drivers\STM32F0xx_StdPeriph_Driver\src\stm32f0xx_dma.o
 .ARM.attributes
                0x00000000       0x31 Drivers\STM32F0xx_StdPeriph_Driver\src\stm32f0xx_dma.o
 .text          0x00000000        0x0 Drivers\STM32F0xx_StdPeriph_Driver\src\stm32f0xx_exti.o
 .data          0x00000000        0x0 Drivers\STM32F0xx_StdPeriph_Driver\src\stm32f0xx_exti.o
 .bss           0x00000000        0x0 Drivers\STM32F0xx_StdPeriph_Driver\src\stm32f0xx_exti.o
 .text.EXTI_DeInit
                0x00000000       0x34 Drivers\STM32F0xx_StdPeriph_Driver\src\stm32f0xx_exti.o
 .text.EXTI_StructInit
                0x00000000       0x28 Drivers\STM32F0xx_StdPeriph_Driver\src\stm32f0xx_exti.o
 .text.EXTI_GenerateSWInterrupt
                0x00000000       0x20 Drivers\STM32F0xx_StdPeriph_Driver\src\stm32f0xx_exti.o
 .text.EXTI_GetFlagStatus
                0x00000000       0x40 Drivers\STM32F0xx_StdPeriph_Driver\src\stm32f0xx_exti.o
 .text.EXTI_ClearFlag
                0x00000000       0x1c Drivers\STM32F0xx_StdPeriph_Driver\src\stm32f0xx_exti.o
 .text          0x00000000        0x0 Drivers\STM32F0xx_StdPeriph_Driver\src\stm32f0xx_flash.o
 .data          0x00000000        0x0 Drivers\STM32F0xx_StdPeriph_Driver\src\stm32f0xx_flash.o
 .bss           0x00000000        0x0 Drivers\STM32F0xx_StdPeriph_Driver\src\stm32f0xx_flash.o
 .text.FLASH_SetLatency
                0x00000000       0x34 Drivers\STM32F0xx_StdPeriph_Driver\src\stm32f0xx_flash.o
 .text.FLASH_PrefetchBufferCmd
                0x00000000       0x3c Drivers\STM32F0xx_StdPeriph_Driver\src\stm32f0xx_flash.o
 .text.FLASH_GetPrefetchBufferStatus
                0x00000000       0x34 Drivers\STM32F0xx_StdPeriph_Driver\src\stm32f0xx_flash.o
 .text.FLASH_Unlock
                0x00000000       0x2c Drivers\STM32F0xx_StdPeriph_Driver\src\stm32f0xx_flash.o
 .text.FLASH_Lock
                0x00000000       0x1c Drivers\STM32F0xx_StdPeriph_Driver\src\stm32f0xx_flash.o
 .text.FLASH_ErasePage
                0x00000000       0x7c Drivers\STM32F0xx_StdPeriph_Driver\src\stm32f0xx_flash.o
 .text.FLASH_EraseAllPages
                0x00000000       0x68 Drivers\STM32F0xx_StdPeriph_Driver\src\stm32f0xx_flash.o
 .text.FLASH_ProgramWord
                0x00000000       0xb4 Drivers\STM32F0xx_StdPeriph_Driver\src\stm32f0xx_flash.o
 .text.FLASH_ProgramHalfWord
                0x00000000       0x78 Drivers\STM32F0xx_StdPeriph_Driver\src\stm32f0xx_flash.o
 .text.FLASH_OB_Unlock
                0x00000000       0x30 Drivers\STM32F0xx_StdPeriph_Driver\src\stm32f0xx_flash.o
 .text.FLASH_OB_Lock
                0x00000000       0x20 Drivers\STM32F0xx_StdPeriph_Driver\src\stm32f0xx_flash.o
 .text.FLASH_OB_Launch
                0x00000000       0x1c Drivers\STM32F0xx_StdPeriph_Driver\src\stm32f0xx_flash.o
 .text.FLASH_OB_Erase
                0x00000000       0xd8 Drivers\STM32F0xx_StdPeriph_Driver\src\stm32f0xx_flash.o
 .text.FLASH_OB_EnableWRP
                0x00000000      0x188 Drivers\STM32F0xx_StdPeriph_Driver\src\stm32f0xx_flash.o
 .text.FLASH_OB_RDPConfig
                0x00000000       0xdc Drivers\STM32F0xx_StdPeriph_Driver\src\stm32f0xx_flash.o
 .text.FLASH_OB_UserConfig
                0x00000000       0xb0 Drivers\STM32F0xx_StdPeriph_Driver\src\stm32f0xx_flash.o
 .text.FLASH_OB_BOOTConfig
                0x00000000       0x8c Drivers\STM32F0xx_StdPeriph_Driver\src\stm32f0xx_flash.o
 .text.FLASH_OB_BOOT0Config
                0x00000000       0x8c Drivers\STM32F0xx_StdPeriph_Driver\src\stm32f0xx_flash.o
 .text.FLASH_OB_BOOT0SWConfig
                0x00000000       0x8c Drivers\STM32F0xx_StdPeriph_Driver\src\stm32f0xx_flash.o
 .text.FLASH_OB_VDDAConfig
                0x00000000       0x8c Drivers\STM32F0xx_StdPeriph_Driver\src\stm32f0xx_flash.o
 .text.FLASH_OB_SRAMParityConfig
                0x00000000       0x8c Drivers\STM32F0xx_StdPeriph_Driver\src\stm32f0xx_flash.o
 .text.FLASH_OB_WriteUser
                0x00000000       0x84 Drivers\STM32F0xx_StdPeriph_Driver\src\stm32f0xx_flash.o
 .text.FLASH_OB_ProgramData
                0x00000000       0x84 Drivers\STM32F0xx_StdPeriph_Driver\src\stm32f0xx_flash.o
 .text.FLASH_OB_GetUser
                0x00000000       0x18 Drivers\STM32F0xx_StdPeriph_Driver\src\stm32f0xx_flash.o
 .text.FLASH_OB_GetWRP
                0x00000000       0x14 Drivers\STM32F0xx_StdPeriph_Driver\src\stm32f0xx_flash.o
 .text.FLASH_OB_GetRDP
                0x00000000       0x38 Drivers\STM32F0xx_StdPeriph_Driver\src\stm32f0xx_flash.o
 .text.FLASH_ITConfig
                0x00000000       0x40 Drivers\STM32F0xx_StdPeriph_Driver\src\stm32f0xx_flash.o
 .text.FLASH_GetFlagStatus
                0x00000000       0x40 Drivers\STM32F0xx_StdPeriph_Driver\src\stm32f0xx_flash.o
 .text.FLASH_ClearFlag
                0x00000000       0x1c Drivers\STM32F0xx_StdPeriph_Driver\src\stm32f0xx_flash.o
 .text.FLASH_GetStatus
                0x00000000       0x5c Drivers\STM32F0xx_StdPeriph_Driver\src\stm32f0xx_flash.o
 .text.FLASH_WaitForLastOperation
                0x00000000       0x5c Drivers\STM32F0xx_StdPeriph_Driver\src\stm32f0xx_flash.o
 .debug_info    0x00000000      0x84f Drivers\STM32F0xx_StdPeriph_Driver\src\stm32f0xx_flash.o
 .debug_abbrev  0x00000000      0x1ec Drivers\STM32F0xx_StdPeriph_Driver\src\stm32f0xx_flash.o
 .debug_aranges
                0x00000000      0x110 Drivers\STM32F0xx_StdPeriph_Driver\src\stm32f0xx_flash.o
 .debug_ranges  0x00000000      0x100 Drivers\STM32F0xx_StdPeriph_Driver\src\stm32f0xx_flash.o
 .debug_line    0x00000000      0x4e0 Drivers\STM32F0xx_StdPeriph_Driver\src\stm32f0xx_flash.o
 .debug_str     0x00000000      0x615 Drivers\STM32F0xx_StdPeriph_Driver\src\stm32f0xx_flash.o
 .comment       0x00000000       0x7d Drivers\STM32F0xx_StdPeriph_Driver\src\stm32f0xx_flash.o
 .debug_frame   0x00000000      0x3d4 Drivers\STM32F0xx_StdPeriph_Driver\src\stm32f0xx_flash.o
 .ARM.attributes
                0x00000000       0x31 Drivers\STM32F0xx_StdPeriph_Driver\src\stm32f0xx_flash.o
 .text          0x00000000        0x0 Drivers\STM32F0xx_StdPeriph_Driver\src\stm32f0xx_gpio.o
 .data          0x00000000        0x0 Drivers\STM32F0xx_StdPeriph_Driver\src\stm32f0xx_gpio.o
 .bss           0x00000000        0x0 Drivers\STM32F0xx_StdPeriph_Driver\src\stm32f0xx_gpio.o
 .text.GPIO_DeInit
                0x00000000       0xf0 Drivers\STM32F0xx_StdPeriph_Driver\src\stm32f0xx_gpio.o
 .text.GPIO_StructInit
                0x00000000       0x34 Drivers\STM32F0xx_StdPeriph_Driver\src\stm32f0xx_gpio.o
 .text.GPIO_PinLockConfig
                0x00000000       0x46 Drivers\STM32F0xx_StdPeriph_Driver\src\stm32f0xx_gpio.o
 .text.GPIO_ReadInputDataBit
                0x00000000       0x48 Drivers\STM32F0xx_StdPeriph_Driver\src\stm32f0xx_gpio.o
 .text.GPIO_ReadOutputDataBit
                0x00000000       0x48 Drivers\STM32F0xx_StdPeriph_Driver\src\stm32f0xx_gpio.o
 .text.GPIO_PinAFConfig
                0x00000000       0xa4 Drivers\STM32F0xx_StdPeriph_Driver\src\stm32f0xx_gpio.o
 .text          0x00000000        0x0 Drivers\STM32F0xx_StdPeriph_Driver\src\stm32f0xx_i2c.o
 .data          0x00000000        0x0 Drivers\STM32F0xx_StdPeriph_Driver\src\stm32f0xx_i2c.o
 .bss           0x00000000        0x0 Drivers\STM32F0xx_StdPeriph_Driver\src\stm32f0xx_i2c.o
 .text.I2C_DeInit
                0x00000000       0x50 Drivers\STM32F0xx_StdPeriph_Driver\src\stm32f0xx_i2c.o
 .text.I2C_Init
                0x00000000       0xd0 Drivers\STM32F0xx_StdPeriph_Driver\src\stm32f0xx_i2c.o
 .text.I2C_StructInit
                0x00000000       0x3c Drivers\STM32F0xx_StdPeriph_Driver\src\stm32f0xx_i2c.o
 .text.I2C_Cmd  0x00000000       0x3a Drivers\STM32F0xx_StdPeriph_Driver\src\stm32f0xx_i2c.o
 .text.I2C_SoftwareResetCmd
                0x00000000       0x2e Drivers\STM32F0xx_StdPeriph_Driver\src\stm32f0xx_i2c.o
 .text.I2C_ITConfig
                0x00000000       0x3a Drivers\STM32F0xx_StdPeriph_Driver\src\stm32f0xx_i2c.o
 .text.I2C_StretchClockCmd
                0x00000000       0x40 Drivers\STM32F0xx_StdPeriph_Driver\src\stm32f0xx_i2c.o
 .text.I2C_StopModeCmd
                0x00000000       0x40 Drivers\STM32F0xx_StdPeriph_Driver\src\stm32f0xx_i2c.o
 .text.I2C_DualAddressCmd
                0x00000000       0x40 Drivers\STM32F0xx_StdPeriph_Driver\src\stm32f0xx_i2c.o
 .text.I2C_OwnAddress2Config
                0x00000000       0x58 Drivers\STM32F0xx_StdPeriph_Driver\src\stm32f0xx_i2c.o
 .text.I2C_GeneralCallCmd
                0x00000000       0x40 Drivers\STM32F0xx_StdPeriph_Driver\src\stm32f0xx_i2c.o
 .text.I2C_SlaveByteControlCmd
                0x00000000       0x40 Drivers\STM32F0xx_StdPeriph_Driver\src\stm32f0xx_i2c.o
 .text.I2C_SlaveAddressConfig
                0x00000000       0x3c Drivers\STM32F0xx_StdPeriph_Driver\src\stm32f0xx_i2c.o
 .text.I2C_10BitAddressingModeCmd
                0x00000000       0x40 Drivers\STM32F0xx_StdPeriph_Driver\src\stm32f0xx_i2c.o
 .text.I2C_AutoEndCmd
                0x00000000       0x40 Drivers\STM32F0xx_StdPeriph_Driver\src\stm32f0xx_i2c.o
 .text.I2C_ReloadCmd
                0x00000000       0x40 Drivers\STM32F0xx_StdPeriph_Driver\src\stm32f0xx_i2c.o
 .text.I2C_NumberOfBytesConfig
                0x00000000       0x44 Drivers\STM32F0xx_StdPeriph_Driver\src\stm32f0xx_i2c.o
 .text.I2C_MasterRequestConfig
                0x00000000       0x40 Drivers\STM32F0xx_StdPeriph_Driver\src\stm32f0xx_i2c.o
 .text.I2C_GenerateSTART
                0x00000000       0x40 Drivers\STM32F0xx_StdPeriph_Driver\src\stm32f0xx_i2c.o
 .text.I2C_GenerateSTOP
                0x00000000       0x40 Drivers\STM32F0xx_StdPeriph_Driver\src\stm32f0xx_i2c.o
 .text.I2C_10BitAddressHeaderCmd
                0x00000000       0x40 Drivers\STM32F0xx_StdPeriph_Driver\src\stm32f0xx_i2c.o
 .text.I2C_AcknowledgeConfig
                0x00000000       0x40 Drivers\STM32F0xx_StdPeriph_Driver\src\stm32f0xx_i2c.o
 .text.I2C_GetAddressMatched
                0x00000000       0x1e Drivers\STM32F0xx_StdPeriph_Driver\src\stm32f0xx_i2c.o
 .text.I2C_GetTransferDirection
                0x00000000       0x48 Drivers\STM32F0xx_StdPeriph_Driver\src\stm32f0xx_i2c.o
 .text.I2C_TransferHandling
                0x00000000       0x6c Drivers\STM32F0xx_StdPeriph_Driver\src\stm32f0xx_i2c.o
 .text.I2C_SMBusAlertCmd
                0x00000000       0x40 Drivers\STM32F0xx_StdPeriph_Driver\src\stm32f0xx_i2c.o
 .text.I2C_ClockTimeoutCmd
                0x00000000       0x40 Drivers\STM32F0xx_StdPeriph_Driver\src\stm32f0xx_i2c.o
 .text.I2C_ExtendedClockTimeoutCmd
                0x00000000       0x3a Drivers\STM32F0xx_StdPeriph_Driver\src\stm32f0xx_i2c.o
 .text.I2C_IdleClockTimeoutCmd
                0x00000000       0x40 Drivers\STM32F0xx_StdPeriph_Driver\src\stm32f0xx_i2c.o
 .text.I2C_TimeoutAConfig
                0x00000000       0x3c Drivers\STM32F0xx_StdPeriph_Driver\src\stm32f0xx_i2c.o
 .text.I2C_TimeoutBConfig
                0x00000000       0x48 Drivers\STM32F0xx_StdPeriph_Driver\src\stm32f0xx_i2c.o
 .text.I2C_CalculatePEC
                0x00000000       0x40 Drivers\STM32F0xx_StdPeriph_Driver\src\stm32f0xx_i2c.o
 .text.I2C_PECRequestCmd
                0x00000000       0x40 Drivers\STM32F0xx_StdPeriph_Driver\src\stm32f0xx_i2c.o
 .text.I2C_GetPEC
                0x00000000       0x16 Drivers\STM32F0xx_StdPeriph_Driver\src\stm32f0xx_i2c.o
 .text.I2C_ReadRegister
                0x00000000       0x2c Drivers\STM32F0xx_StdPeriph_Driver\src\stm32f0xx_i2c.o
 .text.I2C_SendData
                0x00000000       0x1e Drivers\STM32F0xx_StdPeriph_Driver\src\stm32f0xx_i2c.o
 .text.I2C_ReceiveData
                0x00000000       0x16 Drivers\STM32F0xx_StdPeriph_Driver\src\stm32f0xx_i2c.o
 .text.I2C_DMACmd
                0x00000000       0x3a Drivers\STM32F0xx_StdPeriph_Driver\src\stm32f0xx_i2c.o
 .text.I2C_GetFlagStatus
                0x00000000       0x4a Drivers\STM32F0xx_StdPeriph_Driver\src\stm32f0xx_i2c.o
 .text.I2C_ClearFlag
                0x00000000       0x18 Drivers\STM32F0xx_StdPeriph_Driver\src\stm32f0xx_i2c.o
 .text.I2C_GetITStatus
                0x00000000       0x88 Drivers\STM32F0xx_StdPeriph_Driver\src\stm32f0xx_i2c.o
 .text.I2C_ClearITPendingBit
                0x00000000       0x18 Drivers\STM32F0xx_StdPeriph_Driver\src\stm32f0xx_i2c.o
 .debug_info    0x00000000      0xbca Drivers\STM32F0xx_StdPeriph_Driver\src\stm32f0xx_i2c.o
 .debug_abbrev  0x00000000      0x180 Drivers\STM32F0xx_StdPeriph_Driver\src\stm32f0xx_i2c.o
 .debug_aranges
                0x00000000      0x168 Drivers\STM32F0xx_StdPeriph_Driver\src\stm32f0xx_i2c.o
 .debug_ranges  0x00000000      0x158 Drivers\STM32F0xx_StdPeriph_Driver\src\stm32f0xx_i2c.o
 .debug_line    0x00000000      0x567 Drivers\STM32F0xx_StdPeriph_Driver\src\stm32f0xx_i2c.o
 .debug_str     0x00000000      0x681 Drivers\STM32F0xx_StdPeriph_Driver\src\stm32f0xx_i2c.o
 .comment       0x00000000       0x7d Drivers\STM32F0xx_StdPeriph_Driver\src\stm32f0xx_i2c.o
 .debug_frame   0x00000000      0x550 Drivers\STM32F0xx_StdPeriph_Driver\src\stm32f0xx_i2c.o
 .ARM.attributes
                0x00000000       0x31 Drivers\STM32F0xx_StdPeriph_Driver\src\stm32f0xx_i2c.o
 .text          0x00000000        0x0 Drivers\STM32F0xx_StdPeriph_Driver\src\stm32f0xx_iwdg.o
 .data          0x00000000        0x0 Drivers\STM32F0xx_StdPeriph_Driver\src\stm32f0xx_iwdg.o
 .bss           0x00000000        0x0 Drivers\STM32F0xx_StdPeriph_Driver\src\stm32f0xx_iwdg.o
 .text.IWDG_WriteAccessCmd
                0x00000000       0x20 Drivers\STM32F0xx_StdPeriph_Driver\src\stm32f0xx_iwdg.o
 .text.IWDG_SetPrescaler
                0x00000000       0x20 Drivers\STM32F0xx_StdPeriph_Driver\src\stm32f0xx_iwdg.o
 .text.IWDG_SetReload
                0x00000000       0x20 Drivers\STM32F0xx_StdPeriph_Driver\src\stm32f0xx_iwdg.o
 .text.IWDG_ReloadCounter
                0x00000000       0x18 Drivers\STM32F0xx_StdPeriph_Driver\src\stm32f0xx_iwdg.o
 .text.IWDG_SetWindowValue
                0x00000000       0x20 Drivers\STM32F0xx_StdPeriph_Driver\src\stm32f0xx_iwdg.o
 .text.IWDG_Enable
                0x00000000       0x18 Drivers\STM32F0xx_StdPeriph_Driver\src\stm32f0xx_iwdg.o
 .text.IWDG_GetFlagStatus
                0x00000000       0x44 Drivers\STM32F0xx_StdPeriph_Driver\src\stm32f0xx_iwdg.o
 .debug_info    0x00000000      0x226 Drivers\STM32F0xx_StdPeriph_Driver\src\stm32f0xx_iwdg.o
 .debug_abbrev  0x00000000      0x13b Drivers\STM32F0xx_StdPeriph_Driver\src\stm32f0xx_iwdg.o
 .debug_aranges
                0x00000000       0x50 Drivers\STM32F0xx_StdPeriph_Driver\src\stm32f0xx_iwdg.o
 .debug_ranges  0x00000000       0x40 Drivers\STM32F0xx_StdPeriph_Driver\src\stm32f0xx_iwdg.o
 .debug_line    0x00000000      0x210 Drivers\STM32F0xx_StdPeriph_Driver\src\stm32f0xx_iwdg.o
 .debug_str     0x00000000      0x2bb Drivers\STM32F0xx_StdPeriph_Driver\src\stm32f0xx_iwdg.o
 .comment       0x00000000       0x7d Drivers\STM32F0xx_StdPeriph_Driver\src\stm32f0xx_iwdg.o
 .debug_frame   0x00000000       0xe8 Drivers\STM32F0xx_StdPeriph_Driver\src\stm32f0xx_iwdg.o
 .ARM.attributes
                0x00000000       0x31 Drivers\STM32F0xx_StdPeriph_Driver\src\stm32f0xx_iwdg.o
 .text          0x00000000        0x0 Drivers\STM32F0xx_StdPeriph_Driver\src\stm32f0xx_misc.o
 .data          0x00000000        0x0 Drivers\STM32F0xx_StdPeriph_Driver\src\stm32f0xx_misc.o
 .bss           0x00000000        0x0 Drivers\STM32F0xx_StdPeriph_Driver\src\stm32f0xx_misc.o
 .text.NVIC_SystemLPConfig
                0x00000000       0x48 Drivers\STM32F0xx_StdPeriph_Driver\src\stm32f0xx_misc.o
 .text.SysTick_CLKSourceConfig
                0x00000000       0x34 Drivers\STM32F0xx_StdPeriph_Driver\src\stm32f0xx_misc.o
 .text          0x00000000        0x0 Drivers\STM32F0xx_StdPeriph_Driver\src\stm32f0xx_pwr.o
 .data          0x00000000        0x0 Drivers\STM32F0xx_StdPeriph_Driver\src\stm32f0xx_pwr.o
 .bss           0x00000000        0x0 Drivers\STM32F0xx_StdPeriph_Driver\src\stm32f0xx_pwr.o
 .text.PWR_DeInit
                0x00000000       0x22 Drivers\STM32F0xx_StdPeriph_Driver\src\stm32f0xx_pwr.o
 .text.PWR_BackupAccessCmd
                0x00000000       0x40 Drivers\STM32F0xx_StdPeriph_Driver\src\stm32f0xx_pwr.o
 .text.PWR_PVDLevelConfig
                0x00000000       0x34 Drivers\STM32F0xx_StdPeriph_Driver\src\stm32f0xx_pwr.o
 .text.PWR_PVDCmd
                0x00000000       0x3c Drivers\STM32F0xx_StdPeriph_Driver\src\stm32f0xx_pwr.o
 .text.PWR_WakeUpPinCmd
                0x00000000       0x40 Drivers\STM32F0xx_StdPeriph_Driver\src\stm32f0xx_pwr.o
 .text.PWR_EnterSleepMode
                0x00000000       0x38 Drivers\STM32F0xx_StdPeriph_Driver\src\stm32f0xx_pwr.o
 .text.PWR_EnterSTOPMode
                0x00000000       0x88 Drivers\STM32F0xx_StdPeriph_Driver\src\stm32f0xx_pwr.o
 .text.PWR_EnterSTANDBYMode
                0x00000000       0x2c Drivers\STM32F0xx_StdPeriph_Driver\src\stm32f0xx_pwr.o
 .text.PWR_GetFlagStatus
                0x00000000       0x40 Drivers\STM32F0xx_StdPeriph_Driver\src\stm32f0xx_pwr.o
 .text.PWR_ClearFlag
                0x00000000       0x24 Drivers\STM32F0xx_StdPeriph_Driver\src\stm32f0xx_pwr.o
 .debug_info    0x00000000      0x40d Drivers\STM32F0xx_StdPeriph_Driver\src\stm32f0xx_pwr.o
 .debug_abbrev  0x00000000      0x183 Drivers\STM32F0xx_StdPeriph_Driver\src\stm32f0xx_pwr.o
 .debug_aranges
                0x00000000       0x68 Drivers\STM32F0xx_StdPeriph_Driver\src\stm32f0xx_pwr.o
 .debug_ranges  0x00000000       0x58 Drivers\STM32F0xx_StdPeriph_Driver\src\stm32f0xx_pwr.o
 .debug_line    0x00000000      0x2d5 Drivers\STM32F0xx_StdPeriph_Driver\src\stm32f0xx_pwr.o
 .debug_str     0x00000000      0x368 Drivers\STM32F0xx_StdPeriph_Driver\src\stm32f0xx_pwr.o
 .comment       0x00000000       0x7d Drivers\STM32F0xx_StdPeriph_Driver\src\stm32f0xx_pwr.o
 .debug_frame   0x00000000      0x148 Drivers\STM32F0xx_StdPeriph_Driver\src\stm32f0xx_pwr.o
 .ARM.attributes
                0x00000000       0x31 Drivers\STM32F0xx_StdPeriph_Driver\src\stm32f0xx_pwr.o
 .text          0x00000000        0x0 Drivers\STM32F0xx_StdPeriph_Driver\src\stm32f0xx_rcc.o
 .data          0x00000000        0x0 Drivers\STM32F0xx_StdPeriph_Driver\src\stm32f0xx_rcc.o
 .bss           0x00000000        0x0 Drivers\STM32F0xx_StdPeriph_Driver\src\stm32f0xx_rcc.o
 .text.RCC_DeInit
                0x00000000       0x88 Drivers\STM32F0xx_StdPeriph_Driver\src\stm32f0xx_rcc.o
 .text.RCC_HSEConfig
                0x00000000       0x28 Drivers\STM32F0xx_StdPeriph_Driver\src\stm32f0xx_rcc.o
 .text.RCC_WaitForHSEStartUp
                0x00000000       0x5e Drivers\STM32F0xx_StdPeriph_Driver\src\stm32f0xx_rcc.o
 .text.RCC_AdjustHSICalibrationValue
                0x00000000       0x3c Drivers\STM32F0xx_StdPeriph_Driver\src\stm32f0xx_rcc.o
 .text.RCC_HSICmd
                0x00000000       0x3c Drivers\STM32F0xx_StdPeriph_Driver\src\stm32f0xx_rcc.o
 .text.RCC_AdjustHSI14CalibrationValue
                0x00000000       0x3c Drivers\STM32F0xx_StdPeriph_Driver\src\stm32f0xx_rcc.o
 .text.RCC_HSI14Cmd
                0x00000000       0x3c Drivers\STM32F0xx_StdPeriph_Driver\src\stm32f0xx_rcc.o
 .text.RCC_HSI14ADCRequestCmd
                0x00000000       0x3c Drivers\STM32F0xx_StdPeriph_Driver\src\stm32f0xx_rcc.o
 .text.RCC_LSEConfig
                0x00000000       0x38 Drivers\STM32F0xx_StdPeriph_Driver\src\stm32f0xx_rcc.o
 .text.RCC_LSEDriveConfig
                0x00000000       0x2c Drivers\STM32F0xx_StdPeriph_Driver\src\stm32f0xx_rcc.o
 .text.RCC_LSICmd
                0x00000000       0x3c Drivers\STM32F0xx_StdPeriph_Driver\src\stm32f0xx_rcc.o
 .text.RCC_PLLConfig
                0x00000000       0x38 Drivers\STM32F0xx_StdPeriph_Driver\src\stm32f0xx_rcc.o
 .text.RCC_PLLCmd
                0x00000000       0x40 Drivers\STM32F0xx_StdPeriph_Driver\src\stm32f0xx_rcc.o
 .text.RCC_HSI48Cmd
                0x00000000       0x40 Drivers\STM32F0xx_StdPeriph_Driver\src\stm32f0xx_rcc.o
 .text.RCC_PREDIV1Config
                0x00000000       0x34 Drivers\STM32F0xx_StdPeriph_Driver\src\stm32f0xx_rcc.o
 .text.RCC_ClockSecuritySystemCmd
                0x00000000       0x40 Drivers\STM32F0xx_StdPeriph_Driver\src\stm32f0xx_rcc.o
 .text.RCC_MCOConfig
                0x00000000       0x20 Drivers\STM32F0xx_StdPeriph_Driver\src\stm32f0xx_rcc.o
 .text.RCC_SYSCLKConfig
                0x00000000       0x34 Drivers\STM32F0xx_StdPeriph_Driver\src\stm32f0xx_rcc.o
 .text.RCC_GetSYSCLKSource
                0x00000000       0x1c Drivers\STM32F0xx_StdPeriph_Driver\src\stm32f0xx_rcc.o
 .text.RCC_PCLKConfig
                0x00000000       0x38 Drivers\STM32F0xx_StdPeriph_Driver\src\stm32f0xx_rcc.o
 .text.RCC_ADCCLKConfig
                0x00000000       0x54 Drivers\STM32F0xx_StdPeriph_Driver\src\stm32f0xx_rcc.o
 .text.RCC_CECCLKConfig
                0x00000000       0x2c Drivers\STM32F0xx_StdPeriph_Driver\src\stm32f0xx_rcc.o
 .text.RCC_I2CCLKConfig
                0x00000000       0x2c Drivers\STM32F0xx_StdPeriph_Driver\src\stm32f0xx_rcc.o
 .text.RCC_USBCLKConfig
                0x00000000       0x2c Drivers\STM32F0xx_StdPeriph_Driver\src\stm32f0xx_rcc.o
 .text.RCC_RTCCLKConfig
                0x00000000       0x20 Drivers\STM32F0xx_StdPeriph_Driver\src\stm32f0xx_rcc.o
 .text.RCC_RTCCLKCmd
                0x00000000       0x40 Drivers\STM32F0xx_StdPeriph_Driver\src\stm32f0xx_rcc.o
 .text.RCC_BackupResetCmd
                0x00000000       0x40 Drivers\STM32F0xx_StdPeriph_Driver\src\stm32f0xx_rcc.o
 .text.RCC_APB1PeriphClockCmd
                0x00000000       0x40 Drivers\STM32F0xx_StdPeriph_Driver\src\stm32f0xx_rcc.o
 .text.RCC_AHBPeriphResetCmd
                0x00000000       0x40 Drivers\STM32F0xx_StdPeriph_Driver\src\stm32f0xx_rcc.o
 .text.RCC_APB2PeriphResetCmd
                0x00000000       0x40 Drivers\STM32F0xx_StdPeriph_Driver\src\stm32f0xx_rcc.o
 .text.RCC_APB1PeriphResetCmd
                0x00000000       0x40 Drivers\STM32F0xx_StdPeriph_Driver\src\stm32f0xx_rcc.o
 .text.RCC_ITConfig
                0x00000000       0x50 Drivers\STM32F0xx_StdPeriph_Driver\src\stm32f0xx_rcc.o
 .text.RCC_GetFlagStatus
                0x00000000       0x94 Drivers\STM32F0xx_StdPeriph_Driver\src\stm32f0xx_rcc.o
 .text.RCC_ClearFlag
                0x00000000       0x1c Drivers\STM32F0xx_StdPeriph_Driver\src\stm32f0xx_rcc.o
 .text.RCC_GetITStatus
                0x00000000       0x44 Drivers\STM32F0xx_StdPeriph_Driver\src\stm32f0xx_rcc.o
 .text.RCC_ClearITPendingBit
                0x00000000       0x20 Drivers\STM32F0xx_StdPeriph_Driver\src\stm32f0xx_rcc.o
 .text          0x00000000        0x0 Drivers\STM32F0xx_StdPeriph_Driver\src\stm32f0xx_rtc.o
 .data          0x00000000        0x0 Drivers\STM32F0xx_StdPeriph_Driver\src\stm32f0xx_rtc.o
 .bss           0x00000000        0x0 Drivers\STM32F0xx_StdPeriph_Driver\src\stm32f0xx_rtc.o
 .text.RTC_DeInit
                0x00000000       0xa8 Drivers\STM32F0xx_StdPeriph_Driver\src\stm32f0xx_rtc.o
 .text.RTC_Init
                0x00000000       0x84 Drivers\STM32F0xx_StdPeriph_Driver\src\stm32f0xx_rtc.o
 .text.RTC_StructInit
                0x00000000       0x22 Drivers\STM32F0xx_StdPeriph_Driver\src\stm32f0xx_rtc.o
 .text.RTC_WriteProtectionCmd
                0x00000000       0x34 Drivers\STM32F0xx_StdPeriph_Driver\src\stm32f0xx_rtc.o
 .text.RTC_EnterInitMode
                0x00000000       0x80 Drivers\STM32F0xx_StdPeriph_Driver\src\stm32f0xx_rtc.o
 .text.RTC_ExitInitMode
                0x00000000       0x1c Drivers\STM32F0xx_StdPeriph_Driver\src\stm32f0xx_rtc.o
 .text.RTC_WaitForSynchro
                0x00000000       0x98 Drivers\STM32F0xx_StdPeriph_Driver\src\stm32f0xx_rtc.o
 .text.RTC_RefClockCmd
                0x00000000       0x78 Drivers\STM32F0xx_StdPeriph_Driver\src\stm32f0xx_rtc.o
 .text.RTC_BypassShadowCmd
                0x00000000       0x4c Drivers\STM32F0xx_StdPeriph_Driver\src\stm32f0xx_rtc.o
 .text.RTC_SetTime
                0x00000000      0x124 Drivers\STM32F0xx_StdPeriph_Driver\src\stm32f0xx_rtc.o
 .text.RTC_TimeStructInit
                0x00000000       0x28 Drivers\STM32F0xx_StdPeriph_Driver\src\stm32f0xx_rtc.o
 .text.RTC_GetTime
                0x00000000       0xa4 Drivers\STM32F0xx_StdPeriph_Driver\src\stm32f0xx_rtc.o
 .text.RTC_GetSubSecond
                0x00000000       0x24 Drivers\STM32F0xx_StdPeriph_Driver\src\stm32f0xx_rtc.o
 .text.RTC_SetDate
                0x00000000      0x130 Drivers\STM32F0xx_StdPeriph_Driver\src\stm32f0xx_rtc.o
 .text.RTC_DateStructInit
                0x00000000       0x28 Drivers\STM32F0xx_StdPeriph_Driver\src\stm32f0xx_rtc.o
 .text.RTC_GetDate
                0x00000000       0xa4 Drivers\STM32F0xx_StdPeriph_Driver\src\stm32f0xx_rtc.o
 .text.RTC_SetAlarm
                0x00000000      0x124 Drivers\STM32F0xx_StdPeriph_Driver\src\stm32f0xx_rtc.o
 .text.RTC_AlarmStructInit
                0x00000000       0x3a Drivers\STM32F0xx_StdPeriph_Driver\src\stm32f0xx_rtc.o
 .text.RTC_GetAlarm
                0x00000000       0xd8 Drivers\STM32F0xx_StdPeriph_Driver\src\stm32f0xx_rtc.o
 .text.RTC_AlarmCmd
                0x00000000       0xb0 Drivers\STM32F0xx_StdPeriph_Driver\src\stm32f0xx_rtc.o
 .text.RTC_AlarmSubSecondConfig
                0x00000000       0x44 Drivers\STM32F0xx_StdPeriph_Driver\src\stm32f0xx_rtc.o
 .text.RTC_GetAlarmSubSecond
                0x00000000       0x24 Drivers\STM32F0xx_StdPeriph_Driver\src\stm32f0xx_rtc.o
 .text.RTC_WakeUpClockConfig
                0x00000000       0x40 Drivers\STM32F0xx_StdPeriph_Driver\src\stm32f0xx_rtc.o
 .text.RTC_SetWakeUpCounter
                0x00000000       0x2c Drivers\STM32F0xx_StdPeriph_Driver\src\stm32f0xx_rtc.o
 .text.RTC_GetWakeUpCounter
                0x00000000       0x18 Drivers\STM32F0xx_StdPeriph_Driver\src\stm32f0xx_rtc.o
 .text.RTC_WakeUpCmd
                0x00000000       0xac Drivers\STM32F0xx_StdPeriph_Driver\src\stm32f0xx_rtc.o
 .text.RTC_DayLightSavingConfig
                0x00000000       0x48 Drivers\STM32F0xx_StdPeriph_Driver\src\stm32f0xx_rtc.o
 .text.RTC_GetStoreOperation
                0x00000000       0x18 Drivers\STM32F0xx_StdPeriph_Driver\src\stm32f0xx_rtc.o
 .text.RTC_OutputConfig
                0x00000000       0x48 Drivers\STM32F0xx_StdPeriph_Driver\src\stm32f0xx_rtc.o
 .text.RTC_CalibOutputCmd
                0x00000000       0x54 Drivers\STM32F0xx_StdPeriph_Driver\src\stm32f0xx_rtc.o
 .text.RTC_CalibOutputConfig
                0x00000000       0x44 Drivers\STM32F0xx_StdPeriph_Driver\src\stm32f0xx_rtc.o
 .text.RTC_SmoothCalibConfig
                0x00000000       0x94 Drivers\STM32F0xx_StdPeriph_Driver\src\stm32f0xx_rtc.o
 .text.RTC_TimeStampCmd
                0x00000000       0x64 Drivers\STM32F0xx_StdPeriph_Driver\src\stm32f0xx_rtc.o
 .text.RTC_GetTimeStamp
                0x00000000      0x120 Drivers\STM32F0xx_StdPeriph_Driver\src\stm32f0xx_rtc.o
 .text.RTC_GetTimeStampSubSecond
                0x00000000       0x14 Drivers\STM32F0xx_StdPeriph_Driver\src\stm32f0xx_rtc.o
 .text.RTC_TamperTriggerConfig
                0x00000000       0x3c Drivers\STM32F0xx_StdPeriph_Driver\src\stm32f0xx_rtc.o
 .text.RTC_TamperCmd
                0x00000000       0x40 Drivers\STM32F0xx_StdPeriph_Driver\src\stm32f0xx_rtc.o
 .text.RTC_TamperFilterConfig
                0x00000000       0x30 Drivers\STM32F0xx_StdPeriph_Driver\src\stm32f0xx_rtc.o
 .text.RTC_TamperSamplingFreqConfig
                0x00000000       0x30 Drivers\STM32F0xx_StdPeriph_Driver\src\stm32f0xx_rtc.o
 .text.RTC_TamperPinsPrechargeDuration
                0x00000000       0x30 Drivers\STM32F0xx_StdPeriph_Driver\src\stm32f0xx_rtc.o
 .text.RTC_TimeStampOnTamperDetectionCmd
                0x00000000       0x3c Drivers\STM32F0xx_StdPeriph_Driver\src\stm32f0xx_rtc.o
 .text.RTC_TamperPullUpCmd
                0x00000000       0x40 Drivers\STM32F0xx_StdPeriph_Driver\src\stm32f0xx_rtc.o
 .text.RTC_WriteBackupRegister
                0x00000000       0x30 Drivers\STM32F0xx_StdPeriph_Driver\src\stm32f0xx_rtc.o
 .text.RTC_ReadBackupRegister
                0x00000000       0x2c Drivers\STM32F0xx_StdPeriph_Driver\src\stm32f0xx_rtc.o
 .text.RTC_OutputTypeConfig
                0x00000000       0x30 Drivers\STM32F0xx_StdPeriph_Driver\src\stm32f0xx_rtc.o
 .text.RTC_SynchroShiftConfig
                0x00000000       0xac Drivers\STM32F0xx_StdPeriph_Driver\src\stm32f0xx_rtc.o
 .text.RTC_ITConfig
                0x00000000       0x7c Drivers\STM32F0xx_StdPeriph_Driver\src\stm32f0xx_rtc.o
 .text.RTC_GetFlagStatus
                0x00000000       0x50 Drivers\STM32F0xx_StdPeriph_Driver\src\stm32f0xx_rtc.o
 .text.RTC_ClearFlag
                0x00000000       0x34 Drivers\STM32F0xx_StdPeriph_Driver\src\stm32f0xx_rtc.o
 .text.RTC_GetITStatus
                0x00000000       0x7c Drivers\STM32F0xx_StdPeriph_Driver\src\stm32f0xx_rtc.o
 .text.RTC_ClearITPendingBit
                0x00000000       0x38 Drivers\STM32F0xx_StdPeriph_Driver\src\stm32f0xx_rtc.o
 .text.RTC_ByteToBcd2
                0x00000000       0x50 Drivers\STM32F0xx_StdPeriph_Driver\src\stm32f0xx_rtc.o
 .text.RTC_Bcd2ToByte
                0x00000000       0x46 Drivers\STM32F0xx_StdPeriph_Driver\src\stm32f0xx_rtc.o
 .debug_info    0x00000000      0xf21 Drivers\STM32F0xx_StdPeriph_Driver\src\stm32f0xx_rtc.o
 .debug_abbrev  0x00000000      0x1cc Drivers\STM32F0xx_StdPeriph_Driver\src\stm32f0xx_rtc.o
 .debug_aranges
                0x00000000      0x1c0 Drivers\STM32F0xx_StdPeriph_Driver\src\stm32f0xx_rtc.o
 .debug_ranges  0x00000000      0x1b0 Drivers\STM32F0xx_StdPeriph_Driver\src\stm32f0xx_rtc.o
 .debug_line    0x00000000      0x78f Drivers\STM32F0xx_StdPeriph_Driver\src\stm32f0xx_rtc.o
 .debug_str     0x00000000      0xa8e Drivers\STM32F0xx_StdPeriph_Driver\src\stm32f0xx_rtc.o
 .comment       0x00000000       0x7d Drivers\STM32F0xx_StdPeriph_Driver\src\stm32f0xx_rtc.o
 .debug_frame   0x00000000      0x6a0 Drivers\STM32F0xx_StdPeriph_Driver\src\stm32f0xx_rtc.o
 .ARM.attributes
                0x00000000       0x31 Drivers\STM32F0xx_StdPeriph_Driver\src\stm32f0xx_rtc.o
 .text          0x00000000        0x0 Drivers\STM32F0xx_StdPeriph_Driver\src\stm32f0xx_spi.o
 .data          0x00000000        0x0 Drivers\STM32F0xx_StdPeriph_Driver\src\stm32f0xx_spi.o
 .bss           0x00000000        0x0 Drivers\STM32F0xx_StdPeriph_Driver\src\stm32f0xx_spi.o
 .text.SPI_I2S_DeInit
                0x00000000       0x5c Drivers\STM32F0xx_StdPeriph_Driver\src\stm32f0xx_spi.o
 .text.SPI_StructInit
                0x00000000       0x48 Drivers\STM32F0xx_StdPeriph_Driver\src\stm32f0xx_spi.o
 .text.SPI_Init
                0x00000000      0x108 Drivers\STM32F0xx_StdPeriph_Driver\src\stm32f0xx_spi.o
 .text.I2S_StructInit
                0x00000000       0x34 Drivers\STM32F0xx_StdPeriph_Driver\src\stm32f0xx_spi.o
 .text.I2S_Init
                0x00000000      0x1c4 Drivers\STM32F0xx_StdPeriph_Driver\src\stm32f0xx_spi.o
 .text.SPI_Cmd  0x00000000       0x40 Drivers\STM32F0xx_StdPeriph_Driver\src\stm32f0xx_spi.o
 .text.SPI_TIModeCmd
                0x00000000       0x40 Drivers\STM32F0xx_StdPeriph_Driver\src\stm32f0xx_spi.o
 .text.I2S_Cmd  0x00000000       0x48 Drivers\STM32F0xx_StdPeriph_Driver\src\stm32f0xx_spi.o
 .text.SPI_DataSizeConfig
                0x00000000       0x58 Drivers\STM32F0xx_StdPeriph_Driver\src\stm32f0xx_spi.o
 .text.SPI_RxFIFOThresholdConfig
                0x00000000       0x3c Drivers\STM32F0xx_StdPeriph_Driver\src\stm32f0xx_spi.o
 .text.SPI_BiDirectionalLineConfig
                0x00000000       0x4c Drivers\STM32F0xx_StdPeriph_Driver\src\stm32f0xx_spi.o
 .text.SPI_NSSInternalSoftwareConfig
                0x00000000       0x4c Drivers\STM32F0xx_StdPeriph_Driver\src\stm32f0xx_spi.o
 .text.SPI_SSOutputCmd
                0x00000000       0x40 Drivers\STM32F0xx_StdPeriph_Driver\src\stm32f0xx_spi.o
 .text.SPI_NSSPulseModeCmd
                0x00000000       0x40 Drivers\STM32F0xx_StdPeriph_Driver\src\stm32f0xx_spi.o
 .text.SPI_SendData8
                0x00000000       0x2c Drivers\STM32F0xx_StdPeriph_Driver\src\stm32f0xx_spi.o
 .text.SPI_I2S_SendData16
                0x00000000       0x1e Drivers\STM32F0xx_StdPeriph_Driver\src\stm32f0xx_spi.o
 .text.SPI_ReceiveData8
                0x00000000       0x24 Drivers\STM32F0xx_StdPeriph_Driver\src\stm32f0xx_spi.o
 .text.SPI_I2S_ReceiveData16
                0x00000000       0x16 Drivers\STM32F0xx_StdPeriph_Driver\src\stm32f0xx_spi.o
 .text.SPI_CRCLengthConfig
                0x00000000       0x3c Drivers\STM32F0xx_StdPeriph_Driver\src\stm32f0xx_spi.o
 .text.SPI_CalculateCRC
                0x00000000       0x48 Drivers\STM32F0xx_StdPeriph_Driver\src\stm32f0xx_spi.o
 .text.SPI_TransmitCRC
                0x00000000       0x22 Drivers\STM32F0xx_StdPeriph_Driver\src\stm32f0xx_spi.o
 .text.SPI_GetCRC
                0x00000000       0x42 Drivers\STM32F0xx_StdPeriph_Driver\src\stm32f0xx_spi.o
 .text.SPI_GetCRCPolynomial
                0x00000000       0x16 Drivers\STM32F0xx_StdPeriph_Driver\src\stm32f0xx_spi.o
 .text.SPI_I2S_DMACmd
                0x00000000       0x52 Drivers\STM32F0xx_StdPeriph_Driver\src\stm32f0xx_spi.o
 .text.SPI_LastDMATransferCmd
                0x00000000       0x3c Drivers\STM32F0xx_StdPeriph_Driver\src\stm32f0xx_spi.o
 .text.SPI_I2S_ITConfig
                0x00000000       0x84 Drivers\STM32F0xx_StdPeriph_Driver\src\stm32f0xx_spi.o
 .text.SPI_GetTransmissionFIFOStatus
                0x00000000       0x1e Drivers\STM32F0xx_StdPeriph_Driver\src\stm32f0xx_spi.o
 .text.SPI_GetReceptionFIFOStatus
                0x00000000       0x1e Drivers\STM32F0xx_StdPeriph_Driver\src\stm32f0xx_spi.o
 .text.SPI_I2S_GetFlagStatus
                0x00000000       0x48 Drivers\STM32F0xx_StdPeriph_Driver\src\stm32f0xx_spi.o
 .text.SPI_I2S_ClearFlag
                0x00000000       0x22 Drivers\STM32F0xx_StdPeriph_Driver\src\stm32f0xx_spi.o
 .text.SPI_I2S_GetITStatus
                0x00000000       0xb0 Drivers\STM32F0xx_StdPeriph_Driver\src\stm32f0xx_spi.o
 .debug_info    0x00000000      0xacb Drivers\STM32F0xx_StdPeriph_Driver\src\stm32f0xx_spi.o
 .debug_abbrev  0x00000000      0x19a Drivers\STM32F0xx_StdPeriph_Driver\src\stm32f0xx_spi.o
 .debug_aranges
                0x00000000      0x110 Drivers\STM32F0xx_StdPeriph_Driver\src\stm32f0xx_spi.o
 .debug_ranges  0x00000000      0x100 Drivers\STM32F0xx_StdPeriph_Driver\src\stm32f0xx_spi.o
 .debug_line    0x00000000      0x4ab Drivers\STM32F0xx_StdPeriph_Driver\src\stm32f0xx_spi.o
 .debug_str     0x00000000      0x77e Drivers\STM32F0xx_StdPeriph_Driver\src\stm32f0xx_spi.o
 .comment       0x00000000       0x7d Drivers\STM32F0xx_StdPeriph_Driver\src\stm32f0xx_spi.o
 .debug_frame   0x00000000      0x3f0 Drivers\STM32F0xx_StdPeriph_Driver\src\stm32f0xx_spi.o
 .ARM.attributes
                0x00000000       0x31 Drivers\STM32F0xx_StdPeriph_Driver\src\stm32f0xx_spi.o
 .text          0x00000000        0x0 Drivers\STM32F0xx_StdPeriph_Driver\src\stm32f0xx_syscfg.o
 .data          0x00000000        0x0 Drivers\STM32F0xx_StdPeriph_Driver\src\stm32f0xx_syscfg.o
 .bss           0x00000000        0x0 Drivers\STM32F0xx_StdPeriph_Driver\src\stm32f0xx_syscfg.o
 .text.SYSCFG_DeInit
                0x00000000       0x40 Drivers\STM32F0xx_StdPeriph_Driver\src\stm32f0xx_syscfg.o
 .text.SYSCFG_MemoryRemapConfig
                0x00000000       0x34 Drivers\STM32F0xx_StdPeriph_Driver\src\stm32f0xx_syscfg.o
 .text.SYSCFG_DMAChannelRemapConfig
                0x00000000       0x40 Drivers\STM32F0xx_StdPeriph_Driver\src\stm32f0xx_syscfg.o
 .text.SYSCFG_I2CFastModePlusConfig
                0x00000000       0x40 Drivers\STM32F0xx_StdPeriph_Driver\src\stm32f0xx_syscfg.o
 .text.SYSCFG_IRDAEnvSelection
                0x00000000       0x2c Drivers\STM32F0xx_StdPeriph_Driver\src\stm32f0xx_syscfg.o
 .text.SYSCFG_GetPendingIT
                0x00000000       0x28 Drivers\STM32F0xx_StdPeriph_Driver\src\stm32f0xx_syscfg.o
 .text.SYSCFG_BreakConfig
                0x00000000       0x20 Drivers\STM32F0xx_StdPeriph_Driver\src\stm32f0xx_syscfg.o
 .text.SYSCFG_GetFlagStatus
                0x00000000       0x40 Drivers\STM32F0xx_StdPeriph_Driver\src\stm32f0xx_syscfg.o
 .text.SYSCFG_ClearFlag
                0x00000000       0x20 Drivers\STM32F0xx_StdPeriph_Driver\src\stm32f0xx_syscfg.o
 .text          0x00000000        0x0 Drivers\STM32F0xx_StdPeriph_Driver\src\stm32f0xx_tim.o
 .data          0x00000000        0x0 Drivers\STM32F0xx_StdPeriph_Driver\src\stm32f0xx_tim.o
 .bss           0x00000000        0x0 Drivers\STM32F0xx_StdPeriph_Driver\src\stm32f0xx_tim.o
 .text.TIM_DeInit
                0x00000000      0x144 Drivers\STM32F0xx_StdPeriph_Driver\src\stm32f0xx_tim.o
 .text.TIM_PrescalerConfig
                0x00000000       0x30 Drivers\STM32F0xx_StdPeriph_Driver\src\stm32f0xx_tim.o
 .text.TIM_CounterModeConfig
                0x00000000       0x54 Drivers\STM32F0xx_StdPeriph_Driver\src\stm32f0xx_tim.o
 .text.TIM_SetCounter
                0x00000000       0x18 Drivers\STM32F0xx_StdPeriph_Driver\src\stm32f0xx_tim.o
 .text.TIM_SetAutoreload
                0x00000000       0x18 Drivers\STM32F0xx_StdPeriph_Driver\src\stm32f0xx_tim.o
 .text.TIM_GetCounter
                0x00000000       0x14 Drivers\STM32F0xx_StdPeriph_Driver\src\stm32f0xx_tim.o
 .text.TIM_GetPrescaler
                0x00000000       0x16 Drivers\STM32F0xx_StdPeriph_Driver\src\stm32f0xx_tim.o
 .text.TIM_UpdateDisableConfig
                0x00000000       0x40 Drivers\STM32F0xx_StdPeriph_Driver\src\stm32f0xx_tim.o
 .text.TIM_UpdateRequestConfig
                0x00000000       0x40 Drivers\STM32F0xx_StdPeriph_Driver\src\stm32f0xx_tim.o
 .text.TIM_ARRPreloadConfig
                0x00000000       0x40 Drivers\STM32F0xx_StdPeriph_Driver\src\stm32f0xx_tim.o
 .text.TIM_SelectOnePulseMode
                0x00000000       0x38 Drivers\STM32F0xx_StdPeriph_Driver\src\stm32f0xx_tim.o
 .text.TIM_SetClockDivision
                0x00000000       0x3c Drivers\STM32F0xx_StdPeriph_Driver\src\stm32f0xx_tim.o
 .text.TIM_BDTRConfig
                0x00000000       0x4c Drivers\STM32F0xx_StdPeriph_Driver\src\stm32f0xx_tim.o
 .text.TIM_BDTRStructInit
                0x00000000       0x3a Drivers\STM32F0xx_StdPeriph_Driver\src\stm32f0xx_tim.o
 .text.TIM_OC2Init
                0x00000000      0x1b8 Drivers\STM32F0xx_StdPeriph_Driver\src\stm32f0xx_tim.o
 .text.TIM_OC3Init
                0x00000000      0x1a8 Drivers\STM32F0xx_StdPeriph_Driver\src\stm32f0xx_tim.o
 .text.TIM_OC4Init
                0x00000000      0x138 Drivers\STM32F0xx_StdPeriph_Driver\src\stm32f0xx_tim.o
 .text.TIM_OCStructInit
                0x00000000       0x40 Drivers\STM32F0xx_StdPeriph_Driver\src\stm32f0xx_tim.o
 .text.TIM_SelectOCxM
                0x00000000       0xd0 Drivers\STM32F0xx_StdPeriph_Driver\src\stm32f0xx_tim.o
 .text.TIM_SetCompare1
                0x00000000       0x18 Drivers\STM32F0xx_StdPeriph_Driver\src\stm32f0xx_tim.o
 .text.TIM_SetCompare2
                0x00000000       0x18 Drivers\STM32F0xx_StdPeriph_Driver\src\stm32f0xx_tim.o
 .text.TIM_SetCompare3
                0x00000000       0x18 Drivers\STM32F0xx_StdPeriph_Driver\src\stm32f0xx_tim.o
 .text.TIM_SetCompare4
                0x00000000       0x18 Drivers\STM32F0xx_StdPeriph_Driver\src\stm32f0xx_tim.o
 .text.TIM_ForcedOC1Config
                0x00000000       0x54 Drivers\STM32F0xx_StdPeriph_Driver\src\stm32f0xx_tim.o
 .text.TIM_ForcedOC2Config
                0x00000000       0x5c Drivers\STM32F0xx_StdPeriph_Driver\src\stm32f0xx_tim.o
 .text.TIM_ForcedOC3Config
                0x00000000       0x54 Drivers\STM32F0xx_StdPeriph_Driver\src\stm32f0xx_tim.o
 .text.TIM_ForcedOC4Config
                0x00000000       0x5c Drivers\STM32F0xx_StdPeriph_Driver\src\stm32f0xx_tim.o
 .text.TIM_CCPreloadControl
                0x00000000       0x40 Drivers\STM32F0xx_StdPeriph_Driver\src\stm32f0xx_tim.o
 .text.TIM_OC2PreloadConfig
                0x00000000       0x5c Drivers\STM32F0xx_StdPeriph_Driver\src\stm32f0xx_tim.o
 .text.TIM_OC3PreloadConfig
                0x00000000       0x54 Drivers\STM32F0xx_StdPeriph_Driver\src\stm32f0xx_tim.o
 .text.TIM_OC4PreloadConfig
                0x00000000       0x5c Drivers\STM32F0xx_StdPeriph_Driver\src\stm32f0xx_tim.o
 .text.TIM_OC1FastConfig
                0x00000000       0x54 Drivers\STM32F0xx_StdPeriph_Driver\src\stm32f0xx_tim.o
 .text.TIM_OC2FastConfig
                0x00000000       0x5c Drivers\STM32F0xx_StdPeriph_Driver\src\stm32f0xx_tim.o
 .text.TIM_OC3FastConfig
                0x00000000       0x54 Drivers\STM32F0xx_StdPeriph_Driver\src\stm32f0xx_tim.o
 .text.TIM_OC4FastConfig
                0x00000000       0x5c Drivers\STM32F0xx_StdPeriph_Driver\src\stm32f0xx_tim.o
 .text.TIM_ClearOC1Ref
                0x00000000       0x54 Drivers\STM32F0xx_StdPeriph_Driver\src\stm32f0xx_tim.o
 .text.TIM_ClearOC2Ref
                0x00000000       0x58 Drivers\STM32F0xx_StdPeriph_Driver\src\stm32f0xx_tim.o
 .text.TIM_ClearOC3Ref
                0x00000000       0x54 Drivers\STM32F0xx_StdPeriph_Driver\src\stm32f0xx_tim.o
 .text.TIM_ClearOC4Ref
                0x00000000       0x58 Drivers\STM32F0xx_StdPeriph_Driver\src\stm32f0xx_tim.o
 .text.TIM_OC1PolarityConfig
                0x00000000       0x54 Drivers\STM32F0xx_StdPeriph_Driver\src\stm32f0xx_tim.o
 .text.TIM_OC1NPolarityConfig
                0x00000000       0x54 Drivers\STM32F0xx_StdPeriph_Driver\src\stm32f0xx_tim.o
 .text.TIM_OC2PolarityConfig
                0x00000000       0x58 Drivers\STM32F0xx_StdPeriph_Driver\src\stm32f0xx_tim.o
 .text.TIM_OC2NPolarityConfig
                0x00000000       0x58 Drivers\STM32F0xx_StdPeriph_Driver\src\stm32f0xx_tim.o
 .text.TIM_OC3PolarityConfig
                0x00000000       0x5c Drivers\STM32F0xx_StdPeriph_Driver\src\stm32f0xx_tim.o
 .text.TIM_OC3NPolarityConfig
                0x00000000       0x5c Drivers\STM32F0xx_StdPeriph_Driver\src\stm32f0xx_tim.o
 .text.TIM_OC4PolarityConfig
                0x00000000       0x5c Drivers\STM32F0xx_StdPeriph_Driver\src\stm32f0xx_tim.o
 .text.TIM_SelectOCREFClear
                0x00000000       0x38 Drivers\STM32F0xx_StdPeriph_Driver\src\stm32f0xx_tim.o
 .text.TIM_CCxCmd
                0x00000000       0x6a Drivers\STM32F0xx_StdPeriph_Driver\src\stm32f0xx_tim.o
 .text.TIM_CCxNCmd
                0x00000000       0x6a Drivers\STM32F0xx_StdPeriph_Driver\src\stm32f0xx_tim.o
 .text.TIM_SelectCOM
                0x00000000       0x40 Drivers\STM32F0xx_StdPeriph_Driver\src\stm32f0xx_tim.o
 .text.TIM_ICInit
                0x00000000       0xb0 Drivers\STM32F0xx_StdPeriph_Driver\src\stm32f0xx_tim.o
 .text.TIM_ICStructInit
                0x00000000       0x2e Drivers\STM32F0xx_StdPeriph_Driver\src\stm32f0xx_tim.o
 .text.TIM_PWMIConfig
                0x00000000       0xec Drivers\STM32F0xx_StdPeriph_Driver\src\stm32f0xx_tim.o
 .text.TIM_GetCapture1
                0x00000000       0x14 Drivers\STM32F0xx_StdPeriph_Driver\src\stm32f0xx_tim.o
 .text.TIM_GetCapture2
                0x00000000       0x14 Drivers\STM32F0xx_StdPeriph_Driver\src\stm32f0xx_tim.o
 .text.TIM_GetCapture3
                0x00000000       0x14 Drivers\STM32F0xx_StdPeriph_Driver\src\stm32f0xx_tim.o
 .text.TIM_GetCapture4
                0x00000000       0x14 Drivers\STM32F0xx_StdPeriph_Driver\src\stm32f0xx_tim.o
 .text.TIM_SetIC1Prescaler
                0x00000000       0x38 Drivers\STM32F0xx_StdPeriph_Driver\src\stm32f0xx_tim.o
 .text.TIM_SetIC2Prescaler
                0x00000000       0x40 Drivers\STM32F0xx_StdPeriph_Driver\src\stm32f0xx_tim.o
 .text.TIM_SetIC3Prescaler
                0x00000000       0x38 Drivers\STM32F0xx_StdPeriph_Driver\src\stm32f0xx_tim.o
 .text.TIM_SetIC4Prescaler
                0x00000000       0x40 Drivers\STM32F0xx_StdPeriph_Driver\src\stm32f0xx_tim.o
 .text.TIM_GenerateEvent
                0x00000000       0x1e Drivers\STM32F0xx_StdPeriph_Driver\src\stm32f0xx_tim.o
 .text.TIM_GetFlagStatus
                0x00000000       0x48 Drivers\STM32F0xx_StdPeriph_Driver\src\stm32f0xx_tim.o
 .text.TIM_ClearFlag
                0x00000000       0x22 Drivers\STM32F0xx_StdPeriph_Driver\src\stm32f0xx_tim.o
 .text.TIM_GetITStatus
                0x00000000       0x7e Drivers\STM32F0xx_StdPeriph_Driver\src\stm32f0xx_tim.o
 .text.TIM_DMAConfig
                0x00000000       0x32 Drivers\STM32F0xx_StdPeriph_Driver\src\stm32f0xx_tim.o
 .text.TIM_DMACmd
                0x00000000       0x52 Drivers\STM32F0xx_StdPeriph_Driver\src\stm32f0xx_tim.o
 .text.TIM_SelectCCDMA
                0x00000000       0x40 Drivers\STM32F0xx_StdPeriph_Driver\src\stm32f0xx_tim.o
 .text.TIM_InternalClockConfig
                0x00000000       0x20 Drivers\STM32F0xx_StdPeriph_Driver\src\stm32f0xx_tim.o
 .text.TIM_ITRxExternalClockConfig
                0x00000000       0x34 Drivers\STM32F0xx_StdPeriph_Driver\src\stm32f0xx_tim.o
 .text.TIM_TIxExternalClockConfig
                0x00000000       0x80 Drivers\STM32F0xx_StdPeriph_Driver\src\stm32f0xx_tim.o
 .text.TIM_ETRClockMode1Config
                0x00000000       0xa0 Drivers\STM32F0xx_StdPeriph_Driver\src\stm32f0xx_tim.o
 .text.TIM_ETRClockMode2Config
                0x00000000       0x56 Drivers\STM32F0xx_StdPeriph_Driver\src\stm32f0xx_tim.o
 .text.TIM_SelectInputTrigger
                0x00000000       0x54 Drivers\STM32F0xx_StdPeriph_Driver\src\stm32f0xx_tim.o
 .text.TIM_SelectOutputTrigger
                0x00000000       0x38 Drivers\STM32F0xx_StdPeriph_Driver\src\stm32f0xx_tim.o
 .text.TIM_SelectSlaveMode
                0x00000000       0x38 Drivers\STM32F0xx_StdPeriph_Driver\src\stm32f0xx_tim.o
 .text.TIM_SelectMasterSlaveMode
                0x00000000       0x38 Drivers\STM32F0xx_StdPeriph_Driver\src\stm32f0xx_tim.o
 .text.TIM_ETRConfig
                0x00000000       0x82 Drivers\STM32F0xx_StdPeriph_Driver\src\stm32f0xx_tim.o
 .text.TIM_EncoderInterfaceConfig
                0x00000000       0xfc Drivers\STM32F0xx_StdPeriph_Driver\src\stm32f0xx_tim.o
 .text.TIM_SelectHallSensor
                0x00000000       0x40 Drivers\STM32F0xx_StdPeriph_Driver\src\stm32f0xx_tim.o
 .text.TIM_RemapConfig
                0x00000000       0x20 Drivers\STM32F0xx_StdPeriph_Driver\src\stm32f0xx_tim.o
 .text.TI1_Config
                0x00000000       0xce Drivers\STM32F0xx_StdPeriph_Driver\src\stm32f0xx_tim.o
 .text.TI2_Config
                0x00000000       0xf8 Drivers\STM32F0xx_StdPeriph_Driver\src\stm32f0xx_tim.o
 .text.TI3_Config
                0x00000000       0xf0 Drivers\STM32F0xx_StdPeriph_Driver\src\stm32f0xx_tim.o
 .text.TI4_Config
                0x00000000      0x100 Drivers\STM32F0xx_StdPeriph_Driver\src\stm32f0xx_tim.o
 .text          0x00000000        0x0 Drivers\STM32F0xx_StdPeriph_Driver\src\stm32f0xx_usart.o
 .data          0x00000000        0x0 Drivers\STM32F0xx_StdPeriph_Driver\src\stm32f0xx_usart.o
 .bss           0x00000000        0x0 Drivers\STM32F0xx_StdPeriph_Driver\src\stm32f0xx_usart.o
 .text.USART_DeInit
                0x00000000      0x128 Drivers\STM32F0xx_StdPeriph_Driver\src\stm32f0xx_usart.o
 .text.USART_StructInit
                0x00000000       0x36 Drivers\STM32F0xx_StdPeriph_Driver\src\stm32f0xx_usart.o
 .text.USART_ClockInit
                0x00000000       0x4c Drivers\STM32F0xx_StdPeriph_Driver\src\stm32f0xx_usart.o
 .text.USART_ClockStructInit
                0x00000000       0x28 Drivers\STM32F0xx_StdPeriph_Driver\src\stm32f0xx_usart.o
 .text.USART_DirectionModeCmd
                0x00000000       0x3a Drivers\STM32F0xx_StdPeriph_Driver\src\stm32f0xx_usart.o
 .text.USART_OverSampling8Cmd
                0x00000000       0x40 Drivers\STM32F0xx_StdPeriph_Driver\src\stm32f0xx_usart.o
 .text.USART_OneBitMethodCmd
                0x00000000       0x40 Drivers\STM32F0xx_StdPeriph_Driver\src\stm32f0xx_usart.o
 .text.USART_MSBFirstCmd
                0x00000000       0x40 Drivers\STM32F0xx_StdPeriph_Driver\src\stm32f0xx_usart.o
 .text.USART_DataInvCmd
                0x00000000       0x40 Drivers\STM32F0xx_StdPeriph_Driver\src\stm32f0xx_usart.o
 .text.USART_InvPinCmd
                0x00000000       0x3a Drivers\STM32F0xx_StdPeriph_Driver\src\stm32f0xx_usart.o
 .text.USART_SWAPPinCmd
                0x00000000       0x40 Drivers\STM32F0xx_StdPeriph_Driver\src\stm32f0xx_usart.o
 .text.USART_ReceiverTimeOutCmd
                0x00000000       0x40 Drivers\STM32F0xx_StdPeriph_Driver\src\stm32f0xx_usart.o
 .text.USART_SetReceiverTimeOut
                0x00000000       0x2a Drivers\STM32F0xx_StdPeriph_Driver\src\stm32f0xx_usart.o
 .text.USART_SetPrescaler
                0x00000000       0x3a Drivers\STM32F0xx_StdPeriph_Driver\src\stm32f0xx_usart.o
 .text.USART_STOPModeCmd
                0x00000000       0x3a Drivers\STM32F0xx_StdPeriph_Driver\src\stm32f0xx_usart.o
 .text.USART_StopModeWakeUpSourceConfig
                0x00000000       0x30 Drivers\STM32F0xx_StdPeriph_Driver\src\stm32f0xx_usart.o
 .text.USART_AutoBaudRateCmd
                0x00000000       0x40 Drivers\STM32F0xx_StdPeriph_Driver\src\stm32f0xx_usart.o
 .text.USART_AutoBaudRateConfig
                0x00000000       0x30 Drivers\STM32F0xx_StdPeriph_Driver\src\stm32f0xx_usart.o
 .text.USART_ReceiveData
                0x00000000       0x1c Drivers\STM32F0xx_StdPeriph_Driver\src\stm32f0xx_usart.o
 .text.USART_SetAddress
                0x00000000       0x32 Drivers\STM32F0xx_StdPeriph_Driver\src\stm32f0xx_usart.o
 .text.USART_MuteModeCmd
                0x00000000       0x40 Drivers\STM32F0xx_StdPeriph_Driver\src\stm32f0xx_usart.o
 .text.USART_MuteModeWakeUpConfig
                0x00000000       0x30 Drivers\STM32F0xx_StdPeriph_Driver\src\stm32f0xx_usart.o
 .text.USART_AddressDetectionConfig
                0x00000000       0x2c Drivers\STM32F0xx_StdPeriph_Driver\src\stm32f0xx_usart.o
 .text.USART_LINBreakDetectLengthConfig
                0x00000000       0x2c Drivers\STM32F0xx_StdPeriph_Driver\src\stm32f0xx_usart.o
 .text.USART_LINCmd
                0x00000000       0x40 Drivers\STM32F0xx_StdPeriph_Driver\src\stm32f0xx_usart.o
 .text.USART_HalfDuplexCmd
                0x00000000       0x3a Drivers\STM32F0xx_StdPeriph_Driver\src\stm32f0xx_usart.o
 .text.USART_SetGuardTime
                0x00000000       0x3e Drivers\STM32F0xx_StdPeriph_Driver\src\stm32f0xx_usart.o
 .text.USART_SmartCardCmd
                0x00000000       0x3a Drivers\STM32F0xx_StdPeriph_Driver\src\stm32f0xx_usart.o
 .text.USART_SmartCardNACKCmd
                0x00000000       0x3a Drivers\STM32F0xx_StdPeriph_Driver\src\stm32f0xx_usart.o
 .text.USART_SetAutoRetryCount
                0x00000000       0x38 Drivers\STM32F0xx_StdPeriph_Driver\src\stm32f0xx_usart.o
 .text.USART_SetBlockLength
                0x00000000       0x32 Drivers\STM32F0xx_StdPeriph_Driver\src\stm32f0xx_usart.o
 .text.USART_IrDAConfig
                0x00000000       0x2c Drivers\STM32F0xx_StdPeriph_Driver\src\stm32f0xx_usart.o
 .text.USART_IrDACmd
                0x00000000       0x3a Drivers\STM32F0xx_StdPeriph_Driver\src\stm32f0xx_usart.o
 .text.USART_DECmd
                0x00000000       0x40 Drivers\STM32F0xx_StdPeriph_Driver\src\stm32f0xx_usart.o
 .text.USART_DEPolarityConfig
                0x00000000       0x30 Drivers\STM32F0xx_StdPeriph_Driver\src\stm32f0xx_usart.o
 .text.USART_SetDEAssertionTime
                0x00000000       0x30 Drivers\STM32F0xx_StdPeriph_Driver\src\stm32f0xx_usart.o
 .text.USART_SetDEDeassertionTime
                0x00000000       0x30 Drivers\STM32F0xx_StdPeriph_Driver\src\stm32f0xx_usart.o
 .text.USART_DMACmd
                0x00000000       0x3a Drivers\STM32F0xx_StdPeriph_Driver\src\stm32f0xx_usart.o
 .text.USART_DMAReceptionErrorConfig
                0x00000000       0x30 Drivers\STM32F0xx_StdPeriph_Driver\src\stm32f0xx_usart.o
 .text.USART_RequestCmd
                0x00000000       0x48 Drivers\STM32F0xx_StdPeriph_Driver\src\stm32f0xx_usart.o
 .text.USART_OverrunDetectionConfig
                0x00000000       0x30 Drivers\STM32F0xx_StdPeriph_Driver\src\stm32f0xx_usart.o
 .text.USART_GetFlagStatus
                0x00000000       0x3c Drivers\STM32F0xx_StdPeriph_Driver\src\stm32f0xx_usart.o
 .text.USART_ClearFlag
                0x00000000       0x18 Drivers\STM32F0xx_StdPeriph_Driver\src\stm32f0xx_usart.o
 .text.USART_GetITStatus
                0x00000000       0xae Drivers\STM32F0xx_StdPeriph_Driver\src\stm32f0xx_usart.o
 .text.USART_ClearITPendingBit
                0x00000000       0x30 Drivers\STM32F0xx_StdPeriph_Driver\src\stm32f0xx_usart.o
 .text          0x00000000        0x0 Drivers\STM32F0xx_StdPeriph_Driver\src\stm32f0xx_wwdg.o
 .data          0x00000000        0x0 Drivers\STM32F0xx_StdPeriph_Driver\src\stm32f0xx_wwdg.o
 .bss           0x00000000        0x0 Drivers\STM32F0xx_StdPeriph_Driver\src\stm32f0xx_wwdg.o
 .text.WWDG_DeInit
                0x00000000       0x22 Drivers\STM32F0xx_StdPeriph_Driver\src\stm32f0xx_wwdg.o
 .text.WWDG_SetPrescaler
                0x00000000       0x34 Drivers\STM32F0xx_StdPeriph_Driver\src\stm32f0xx_wwdg.o
 .text.WWDG_SetWindowValue
                0x00000000       0x3c Drivers\STM32F0xx_StdPeriph_Driver\src\stm32f0xx_wwdg.o
 .text.WWDG_EnableIT
                0x00000000       0x1c Drivers\STM32F0xx_StdPeriph_Driver\src\stm32f0xx_wwdg.o
 .text.WWDG_SetCounter
                0x00000000       0x24 Drivers\STM32F0xx_StdPeriph_Driver\src\stm32f0xx_wwdg.o
 .text.WWDG_Enable
                0x00000000       0x28 Drivers\STM32F0xx_StdPeriph_Driver\src\stm32f0xx_wwdg.o
 .text.WWDG_GetFlagStatus
                0x00000000       0x34 Drivers\STM32F0xx_StdPeriph_Driver\src\stm32f0xx_wwdg.o
 .text.WWDG_ClearFlag
                0x00000000       0x14 Drivers\STM32F0xx_StdPeriph_Driver\src\stm32f0xx_wwdg.o
 .debug_info    0x00000000      0x24a Drivers\STM32F0xx_StdPeriph_Driver\src\stm32f0xx_wwdg.o
 .debug_abbrev  0x00000000      0x144 Drivers\STM32F0xx_StdPeriph_Driver\src\stm32f0xx_wwdg.o
 .debug_aranges
                0x00000000       0x58 Drivers\STM32F0xx_StdPeriph_Driver\src\stm32f0xx_wwdg.o
 .debug_ranges  0x00000000       0x48 Drivers\STM32F0xx_StdPeriph_Driver\src\stm32f0xx_wwdg.o
 .debug_line    0x00000000      0x229 Drivers\STM32F0xx_StdPeriph_Driver\src\stm32f0xx_wwdg.o
 .debug_str     0x00000000      0x2b5 Drivers\STM32F0xx_StdPeriph_Driver\src\stm32f0xx_wwdg.o
 .comment       0x00000000       0x7d Drivers\STM32F0xx_StdPeriph_Driver\src\stm32f0xx_wwdg.o
 .debug_frame   0x00000000      0x104 Drivers\STM32F0xx_StdPeriph_Driver\src\stm32f0xx_wwdg.o
 .ARM.attributes
                0x00000000       0x31 Drivers\STM32F0xx_StdPeriph_Driver\src\stm32f0xx_wwdg.o
 .text          0x00000000        0x0 src\grbl\coolant_control.o
 .data          0x00000000        0x0 src\grbl\coolant_control.o
 .bss           0x00000000        0x0 src\grbl\coolant_control.o
 .text.coolant_init
                0x00000000        0xe src\grbl\coolant_control.o
 .text          0x00000000        0x0 src\grbl\eeprom.o
 .data          0x00000000        0x0 src\grbl\eeprom.o
 .bss           0x00000000        0x0 src\grbl\eeprom.o
 .text          0x00000000        0x0 src\grbl\gcode.o
 .data          0x00000000        0x0 src\grbl\gcode.o
 .bss           0x00000000        0x0 src\grbl\gcode.o
 .text          0x00000000        0x0 src\grbl\jog.o
 .data          0x00000000        0x0 src\grbl\jog.o
 .bss           0x00000000        0x0 src\grbl\jog.o
 .text          0x00000000        0x0 src\grbl\limits.o
 .data          0x00000000        0x0 src\grbl\limits.o
 .bss           0x00000000        0x0 src\grbl\limits.o
 .text          0x00000000        0x0 src\grbl\motion_control.o
 .data          0x00000000        0x0 src\grbl\motion_control.o
 .bss           0x00000000        0x0 src\grbl\motion_control.o
 .text          0x00000000        0x0 src\grbl\nuts_bolts.o
 .data          0x00000000        0x0 src\grbl\nuts_bolts.o
 .bss           0x00000000        0x0 src\grbl\nuts_bolts.o
 .text          0x00000000        0x0 src\grbl\planner.o
 .data          0x00000000        0x0 src\grbl\planner.o
 .bss           0x00000000        0x0 src\grbl\planner.o
 .text.plan_get_block_buffer_count
                0x00000000       0x3c src\grbl\planner.o
 .text          0x00000000        0x0 src\grbl\print.o
 .data          0x00000000        0x0 src\grbl\print.o
 .bss           0x00000000        0x0 src\grbl\print.o
 .text.print_uint8_base2_ndigit
                0x00000000      0x126 src\grbl\print.o
 .text.print_uint32_base10
                0x00000000       0x90 src\grbl\print.o
 .text.printInteger
                0x00000000       0x30 src\grbl\print.o
 .text          0x00000000        0x0 src\grbl\probe.o
 .data          0x00000000        0x0 src\grbl\probe.o
 .bss           0x00000000        0x0 src\grbl\probe.o
 .text          0x00000000        0x0 src\grbl\protocol.o
 .data          0x00000000        0x0 src\grbl\protocol.o
 .bss           0x00000000        0x0 src\grbl\protocol.o
 .text          0x00000000        0x0 src\grbl\report.o
 .data          0x00000000        0x0 src\grbl\report.o
 .bss           0x00000000        0x0 src\grbl\report.o
 .text.report_echo_line_received
                0x00000000       0x28 src\grbl\report.o
 .text          0x00000000        0x0 src\grbl\serial.o
 .data          0x00000000        0x0 src\grbl\serial.o
 .bss           0x00000000        0x0 src\grbl\serial.o
 .bss.serial_tx_buffer_tail
                0x00000000        0x1 src\grbl\serial.o
 .text.serial_get_rx_buffer_count
                0x00000000       0x48 src\grbl\serial.o
 .text.serial_get_tx_buffer_count
                0x00000000       0x48 src\grbl\serial.o
 .text          0x00000000        0x0 src\grbl\settings.o
 .data          0x00000000        0x0 src\grbl\settings.o
 .bss           0x00000000        0x0 src\grbl\settings.o
 .text          0x00000000        0x0 src\grbl\spindle_control.o
 .data          0x00000000        0x0 src\grbl\spindle_control.o
 .bss           0x00000000        0x0 src\grbl\spindle_control.o
 .text          0x00000000        0x0 src\grbl\stepper.o
 .data          0x00000000        0x0 src\grbl\stepper.o
 .bss           0x00000000        0x0 src\grbl\stepper.o
 .text          0x00000000        0x0 src\grbl\system.o
 .data          0x00000000        0x0 src\grbl\system.o
 .bss           0x00000000        0x0 src\grbl\system.o
 .text.NVIC_ClearPendingIRQ
                0x00000000       0x34 src\grbl\system.o
 .text.EXTI9_5_IRQHandler
                0x00000000       0x70 src\grbl\system.o
 .text          0x00000000        0x0 src\main.o
 .data          0x00000000        0x0 src\main.o
 .bss           0x00000000        0x0 src\main.o
 .text.LedBlink
                0x00000000       0x34 src\main.o
 .data.nOnFlag.7933
                0x00000000        0x1 src\main.o
 .text          0x00000000       0x14 src\startup_stm32f051.o
 .data          0x00000000        0x0 src\startup_stm32f051.o
 .bss           0x00000000        0x0 src\startup_stm32f051.o
 .text          0x00000000        0x0 src\stm32f0xx_it.o
 .data          0x00000000        0x0 src\stm32f0xx_it.o
 .bss           0x00000000        0x0 src\stm32f0xx_it.o
 .text          0x00000000        0x0 src\syscalls.o
 .data          0x00000000        0x0 src\syscalls.o
 .bss           0x00000000        0x0 src\syscalls.o
 .bss.__env     0x00000000        0x4 src\syscalls.o
 .data.environ  0x00000000        0x4 src\syscalls.o
 .text.initialise_monitor_handles
                0x00000000        0xa src\syscalls.o
 .text._getpid  0x00000000       0x18 src\syscalls.o
 .text._gettimeofday
                0x00000000       0x20 src\syscalls.o
 .text._kill    0x00000000       0x20 src\syscalls.o
 .text._exit    0x00000000        0xa src\syscalls.o
 .text._write   0x00000000       0x24 src\syscalls.o
 .text._sbrk    0x00000000       0x3c src\syscalls.o
 .text._close   0x00000000       0x20 src\syscalls.o
 .text._fstat   0x00000000       0x20 src\syscalls.o
 .text._isatty  0x00000000       0x1c src\syscalls.o
 .text._lseek   0x00000000       0x24 src\syscalls.o
 .text._read    0x00000000       0x24 src\syscalls.o
 .text._readlink
                0x00000000       0x24 src\syscalls.o
 .text._open    0x00000000       0x24 src\syscalls.o
 .text._wait    0x00000000       0x20 src\syscalls.o
 .text._unlink  0x00000000       0x20 src\syscalls.o
 .text._times   0x00000000       0x20 src\syscalls.o
 .text._stat    0x00000000       0x20 src\syscalls.o
 .text._symlink
                0x00000000       0x20 src\syscalls.o
 .text._link    0x00000000       0x20 src\syscalls.o
 .text._fork    0x00000000       0x18 src\syscalls.o
 .text._execve  0x00000000       0x24 src\syscalls.o
 .bss.heap_end.5889
                0x00000000        0x4 src\syscalls.o
 .debug_info    0x00000000     0x103c src\syscalls.o
 .debug_abbrev  0x00000000      0x225 src\syscalls.o
 .debug_aranges
                0x00000000       0xc8 src\syscalls.o
 .debug_ranges  0x00000000       0xb8 src\syscalls.o
 .debug_line    0x00000000      0x3f3 src\syscalls.o
 .debug_str     0x00000000      0x8b7 src\syscalls.o
 .comment       0x00000000       0x7d src\syscalls.o
 .debug_frame   0x00000000      0x2c4 src\syscalls.o
 .ARM.attributes
                0x00000000       0x31 src\syscalls.o
 .text          0x00000000        0x0 src\system_stm32f0xx.o
 .data          0x00000000        0x0 src\system_stm32f0xx.o
 .bss           0x00000000        0x0 src\system_stm32f0xx.o
 .data.AHBPrescTable
                0x00000000       0x10 src\system_stm32f0xx.o
 .text.SystemCoreClockUpdate
                0x00000000       0xd4 src\system_stm32f0xx.o
 .text          0x00000000        0x0 src\tiny_printf.o
 .data          0x00000000        0x0 src\tiny_printf.o
 .bss           0x00000000        0x0 src\tiny_printf.o
 .text.ts_itoa  0x00000000       0x98 src\tiny_printf.o
 .text.ts_formatstring
                0x00000000      0x12c src\tiny_printf.o
 .text.ts_formatlength
                0x00000000       0xa8 src\tiny_printf.o
 .rodata.ts_formatlength
                0x00000000       0x84 src\tiny_printf.o
 .text.siprintf
                0x00000000       0x30 src\tiny_printf.o
 .text.fiprintf
                0x00000000       0xc8 src\tiny_printf.o
 .text.iprintf  0x00000000       0xc0 src\tiny_printf.o
 .rodata        0x00000000        0x2 src\tiny_printf.o
 .text.fputs    0x00000000       0x70 src\tiny_printf.o
 .text.puts     0x00000000       0x60 src\tiny_printf.o
 .text.fwrite   0x00000000       0x3a src\tiny_printf.o
 .debug_info    0x00000000      0xc78 src\tiny_printf.o
 .debug_abbrev  0x00000000      0x262 src\tiny_printf.o
 .debug_aranges
                0x00000000       0x60 src\tiny_printf.o
 .debug_ranges  0x00000000       0x50 src\tiny_printf.o
 .debug_line    0x00000000      0x2b9 src\tiny_printf.o
 .debug_str     0x00000000      0x64f src\tiny_printf.o
 .comment       0x00000000       0x7d src\tiny_printf.o
 .debug_frame   0x00000000      0x140 src\tiny_printf.o
 .ARM.attributes
                0x00000000       0x31 src\tiny_printf.o
 .text          0x00000000        0x0 c:/program files (x86)/atollic/truestudio for arm 8.0.0/armtools/bin/../lib/gcc/arm-atollic-eabi/6.3.1/../../../../arm-atollic-eabi/lib/armv6-m\libc_nano.a(lib_a-init.o)
 .data          0x00000000        0x0 c:/program files (x86)/atollic/truestudio for arm 8.0.0/armtools/bin/../lib/gcc/arm-atollic-eabi/6.3.1/../../../../arm-atollic-eabi/lib/armv6-m\libc_nano.a(lib_a-init.o)
 .bss           0x00000000        0x0 c:/program files (x86)/atollic/truestudio for arm 8.0.0/armtools/bin/../lib/gcc/arm-atollic-eabi/6.3.1/../../../../arm-atollic-eabi/lib/armv6-m\libc_nano.a(lib_a-init.o)
 .text          0x00000000        0x0 c:/program files (x86)/atollic/truestudio for arm 8.0.0/armtools/bin/../lib/gcc/arm-atollic-eabi/6.3.1/../../../../arm-atollic-eabi/lib/armv6-m\libc_nano.a(lib_a-memcmp.o)
 .data          0x00000000        0x0 c:/program files (x86)/atollic/truestudio for arm 8.0.0/armtools/bin/../lib/gcc/arm-atollic-eabi/6.3.1/../../../../arm-atollic-eabi/lib/armv6-m\libc_nano.a(lib_a-memcmp.o)
 .bss           0x00000000        0x0 c:/program files (x86)/atollic/truestudio for arm 8.0.0/armtools/bin/../lib/gcc/arm-atollic-eabi/6.3.1/../../../../arm-atollic-eabi/lib/armv6-m\libc_nano.a(lib_a-memcmp.o)
 .text          0x00000000        0x0 c:/program files (x86)/atollic/truestudio for arm 8.0.0/armtools/bin/../lib/gcc/arm-atollic-eabi/6.3.1/../../../../arm-atollic-eabi/lib/armv6-m\libc_nano.a(lib_a-memcpy-stub.o)
 .data          0x00000000        0x0 c:/program files (x86)/atollic/truestudio for arm 8.0.0/armtools/bin/../lib/gcc/arm-atollic-eabi/6.3.1/../../../../arm-atollic-eabi/lib/armv6-m\libc_nano.a(lib_a-memcpy-stub.o)
 .bss           0x00000000        0x0 c:/program files (x86)/atollic/truestudio for arm 8.0.0/armtools/bin/../lib/gcc/arm-atollic-eabi/6.3.1/../../../../arm-atollic-eabi/lib/armv6-m\libc_nano.a(lib_a-memcpy-stub.o)
 .text          0x00000000        0x0 c:/program files (x86)/atollic/truestudio for arm 8.0.0/armtools/bin/../lib/gcc/arm-atollic-eabi/6.3.1/../../../../arm-atollic-eabi/lib/armv6-m\libc_nano.a(lib_a-memset.o)
 .data          0x00000000        0x0 c:/program files (x86)/atollic/truestudio for arm 8.0.0/armtools/bin/../lib/gcc/arm-atollic-eabi/6.3.1/../../../../arm-atollic-eabi/lib/armv6-m\libc_nano.a(lib_a-memset.o)
 .bss           0x00000000        0x0 c:/program files (x86)/atollic/truestudio for arm 8.0.0/armtools/bin/../lib/gcc/arm-atollic-eabi/6.3.1/../../../../arm-atollic-eabi/lib/armv6-m\libc_nano.a(lib_a-memset.o)
 .text          0x00000000        0x0 c:/program files (x86)/atollic/truestudio for arm 8.0.0/armtools/bin/../lib/gcc/arm-atollic-eabi/6.3.1/../../../../arm-atollic-eabi/lib/armv6-m\libc_nano.a(lib_a-reent.o)
 .data          0x00000000        0x0 c:/program files (x86)/atollic/truestudio for arm 8.0.0/armtools/bin/../lib/gcc/arm-atollic-eabi/6.3.1/../../../../arm-atollic-eabi/lib/armv6-m\libc_nano.a(lib_a-reent.o)
 .bss           0x00000000        0x0 c:/program files (x86)/atollic/truestudio for arm 8.0.0/armtools/bin/../lib/gcc/arm-atollic-eabi/6.3.1/../../../../arm-atollic-eabi/lib/armv6-m\libc_nano.a(lib_a-reent.o)
 .text.cleanup_glue
                0x00000000       0x1a c:/program files (x86)/atollic/truestudio for arm 8.0.0/armtools/bin/../lib/gcc/arm-atollic-eabi/6.3.1/../../../../arm-atollic-eabi/lib/armv6-m\libc_nano.a(lib_a-reent.o)
 .text._reclaim_reent
                0x00000000       0xcc c:/program files (x86)/atollic/truestudio for arm 8.0.0/armtools/bin/../lib/gcc/arm-atollic-eabi/6.3.1/../../../../arm-atollic-eabi/lib/armv6-m\libc_nano.a(lib_a-reent.o)
 .debug_frame   0x00000000       0x48 c:/program files (x86)/atollic/truestudio for arm 8.0.0/armtools/bin/../lib/gcc/arm-atollic-eabi/6.3.1/../../../../arm-atollic-eabi/lib/armv6-m\libc_nano.a(lib_a-reent.o)
 .ARM.attributes
                0x00000000       0x2c c:/program files (x86)/atollic/truestudio for arm 8.0.0/armtools/bin/../lib/gcc/arm-atollic-eabi/6.3.1/../../../../arm-atollic-eabi/lib/armv6-m\libc_nano.a(lib_a-reent.o)
 COMMON         0x00000000        0x4 c:/program files (x86)/atollic/truestudio for arm 8.0.0/armtools/bin/../lib/gcc/arm-atollic-eabi/6.3.1/../../../../arm-atollic-eabi/lib/armv6-m\libc_nano.a(lib_a-reent.o)
 .text          0x00000000        0xe c:/program files (x86)/atollic/truestudio for arm 8.0.0/armtools/bin/../lib/gcc/arm-atollic-eabi/6.3.1/../../../../arm-atollic-eabi/lib/armv6-m\libc_nano.a(lib_a-strlen.o)
 .data          0x00000000        0x0 c:/program files (x86)/atollic/truestudio for arm 8.0.0/armtools/bin/../lib/gcc/arm-atollic-eabi/6.3.1/../../../../arm-atollic-eabi/lib/armv6-m\libc_nano.a(lib_a-strlen.o)
 .bss           0x00000000        0x0 c:/program files (x86)/atollic/truestudio for arm 8.0.0/armtools/bin/../lib/gcc/arm-atollic-eabi/6.3.1/../../../../arm-atollic-eabi/lib/armv6-m\libc_nano.a(lib_a-strlen.o)
 .ARM.attributes
                0x00000000       0x1c c:/program files (x86)/atollic/truestudio for arm 8.0.0/armtools/bin/../lib/gcc/arm-atollic-eabi/6.3.1/../../../../arm-atollic-eabi/lib/armv6-m\libc_nano.a(lib_a-strlen.o)
 .text          0x00000000        0x0 c:/program files (x86)/atollic/truestudio for arm 8.0.0/armtools/bin/../lib/gcc/arm-atollic-eabi/6.3.1/../../../../arm-atollic-eabi/lib/armv6-m\libc_nano.a(lib_a-impure.o)
 .data          0x00000000        0x0 c:/program files (x86)/atollic/truestudio for arm 8.0.0/armtools/bin/../lib/gcc/arm-atollic-eabi/6.3.1/../../../../arm-atollic-eabi/lib/armv6-m\libc_nano.a(lib_a-impure.o)
 .bss           0x00000000        0x0 c:/program files (x86)/atollic/truestudio for arm 8.0.0/armtools/bin/../lib/gcc/arm-atollic-eabi/6.3.1/../../../../arm-atollic-eabi/lib/armv6-m\libc_nano.a(lib_a-impure.o)
 .rodata._global_impure_ptr
                0x00000000        0x4 c:/program files (x86)/atollic/truestudio for arm 8.0.0/armtools/bin/../lib/gcc/arm-atollic-eabi/6.3.1/../../../../arm-atollic-eabi/lib/armv6-m\libc_nano.a(lib_a-impure.o)
 .text          0x00000000        0x0 c:/program files (x86)/atollic/truestudio for arm 8.0.0/armtools/bin/../lib/gcc/arm-atollic-eabi/6.3.1/../../../../arm-atollic-eabi/lib/armv6-m\libc_nano.a(lib_a-nano-freer.o)
 .data          0x00000000        0x0 c:/program files (x86)/atollic/truestudio for arm 8.0.0/armtools/bin/../lib/gcc/arm-atollic-eabi/6.3.1/../../../../arm-atollic-eabi/lib/armv6-m\libc_nano.a(lib_a-nano-freer.o)
 .bss           0x00000000        0x0 c:/program files (x86)/atollic/truestudio for arm 8.0.0/armtools/bin/../lib/gcc/arm-atollic-eabi/6.3.1/../../../../arm-atollic-eabi/lib/armv6-m\libc_nano.a(lib_a-nano-freer.o)
 .text._free_r  0x00000000       0x94 c:/program files (x86)/atollic/truestudio for arm 8.0.0/armtools/bin/../lib/gcc/arm-atollic-eabi/6.3.1/../../../../arm-atollic-eabi/lib/armv6-m\libc_nano.a(lib_a-nano-freer.o)
 .debug_frame   0x00000000       0x2c c:/program files (x86)/atollic/truestudio for arm 8.0.0/armtools/bin/../lib/gcc/arm-atollic-eabi/6.3.1/../../../../arm-atollic-eabi/lib/armv6-m\libc_nano.a(lib_a-nano-freer.o)
 .ARM.attributes
                0x00000000       0x2c c:/program files (x86)/atollic/truestudio for arm 8.0.0/armtools/bin/../lib/gcc/arm-atollic-eabi/6.3.1/../../../../arm-atollic-eabi/lib/armv6-m\libc_nano.a(lib_a-nano-freer.o)
 .text          0x00000000        0x0 c:/program files (x86)/atollic/truestudio for arm 8.0.0/armtools/bin/../lib/gcc/arm-atollic-eabi/6.3.1/../../../../arm-atollic-eabi/lib/armv6-m\libc_nano.a(lib_a-nano-mallocr.o)
 .data          0x00000000        0x0 c:/program files (x86)/atollic/truestudio for arm 8.0.0/armtools/bin/../lib/gcc/arm-atollic-eabi/6.3.1/../../../../arm-atollic-eabi/lib/armv6-m\libc_nano.a(lib_a-nano-mallocr.o)
 .bss           0x00000000        0x0 c:/program files (x86)/atollic/truestudio for arm 8.0.0/armtools/bin/../lib/gcc/arm-atollic-eabi/6.3.1/../../../../arm-atollic-eabi/lib/armv6-m\libc_nano.a(lib_a-nano-mallocr.o)
 .text._malloc_r
                0x00000000       0xbc c:/program files (x86)/atollic/truestudio for arm 8.0.0/armtools/bin/../lib/gcc/arm-atollic-eabi/6.3.1/../../../../arm-atollic-eabi/lib/armv6-m\libc_nano.a(lib_a-nano-mallocr.o)
 .bss.__malloc_free_list
                0x00000000        0x4 c:/program files (x86)/atollic/truestudio for arm 8.0.0/armtools/bin/../lib/gcc/arm-atollic-eabi/6.3.1/../../../../arm-atollic-eabi/lib/armv6-m\libc_nano.a(lib_a-nano-mallocr.o)
 .bss.__malloc_sbrk_start
                0x00000000        0x4 c:/program files (x86)/atollic/truestudio for arm 8.0.0/armtools/bin/../lib/gcc/arm-atollic-eabi/6.3.1/../../../../arm-atollic-eabi/lib/armv6-m\libc_nano.a(lib_a-nano-mallocr.o)
 .debug_frame   0x00000000       0x2c c:/program files (x86)/atollic/truestudio for arm 8.0.0/armtools/bin/../lib/gcc/arm-atollic-eabi/6.3.1/../../../../arm-atollic-eabi/lib/armv6-m\libc_nano.a(lib_a-nano-mallocr.o)
 .ARM.attributes
                0x00000000       0x2c c:/program files (x86)/atollic/truestudio for arm 8.0.0/armtools/bin/../lib/gcc/arm-atollic-eabi/6.3.1/../../../../arm-atollic-eabi/lib/armv6-m\libc_nano.a(lib_a-nano-mallocr.o)
 .text          0x00000000        0x0 c:/program files (x86)/atollic/truestudio for arm 8.0.0/armtools/bin/../lib/gcc/arm-atollic-eabi/6.3.1/../../../../arm-atollic-eabi/lib/armv6-m\libc_nano.a(lib_a-sbrkr.o)
 .data          0x00000000        0x0 c:/program files (x86)/atollic/truestudio for arm 8.0.0/armtools/bin/../lib/gcc/arm-atollic-eabi/6.3.1/../../../../arm-atollic-eabi/lib/armv6-m\libc_nano.a(lib_a-sbrkr.o)
 .bss           0x00000000        0x0 c:/program files (x86)/atollic/truestudio for arm 8.0.0/armtools/bin/../lib/gcc/arm-atollic-eabi/6.3.1/../../../../arm-atollic-eabi/lib/armv6-m\libc_nano.a(lib_a-sbrkr.o)
 .text._sbrk_r  0x00000000       0x24 c:/program files (x86)/atollic/truestudio for arm 8.0.0/armtools/bin/../lib/gcc/arm-atollic-eabi/6.3.1/../../../../arm-atollic-eabi/lib/armv6-m\libc_nano.a(lib_a-sbrkr.o)
 .debug_frame   0x00000000       0x2c c:/program files (x86)/atollic/truestudio for arm 8.0.0/armtools/bin/../lib/gcc/arm-atollic-eabi/6.3.1/../../../../arm-atollic-eabi/lib/armv6-m\libc_nano.a(lib_a-sbrkr.o)
 .ARM.attributes
                0x00000000       0x2c c:/program files (x86)/atollic/truestudio for arm 8.0.0/armtools/bin/../lib/gcc/arm-atollic-eabi/6.3.1/../../../../arm-atollic-eabi/lib/armv6-m\libc_nano.a(lib_a-sbrkr.o)
 .text          0x00000000        0x0 c:/program files (x86)/atollic/truestudio for arm 8.0.0/armtools/bin/../lib/gcc/arm-atollic-eabi/6.3.1/../../../../arm-atollic-eabi/lib/armv6-m\libc_nano.a(lib_a-mlock.o)
 .data          0x00000000        0x0 c:/program files (x86)/atollic/truestudio for arm 8.0.0/armtools/bin/../lib/gcc/arm-atollic-eabi/6.3.1/../../../../arm-atollic-eabi/lib/armv6-m\libc_nano.a(lib_a-mlock.o)
 .bss           0x00000000        0x0 c:/program files (x86)/atollic/truestudio for arm 8.0.0/armtools/bin/../lib/gcc/arm-atollic-eabi/6.3.1/../../../../arm-atollic-eabi/lib/armv6-m\libc_nano.a(lib_a-mlock.o)
 .text.__malloc_lock
                0x00000000        0x2 c:/program files (x86)/atollic/truestudio for arm 8.0.0/armtools/bin/../lib/gcc/arm-atollic-eabi/6.3.1/../../../../arm-atollic-eabi/lib/armv6-m\libc_nano.a(lib_a-mlock.o)
 .text.__malloc_unlock
                0x00000000        0x2 c:/program files (x86)/atollic/truestudio for arm 8.0.0/armtools/bin/../lib/gcc/arm-atollic-eabi/6.3.1/../../../../arm-atollic-eabi/lib/armv6-m\libc_nano.a(lib_a-mlock.o)
 .debug_frame   0x00000000       0x30 c:/program files (x86)/atollic/truestudio for arm 8.0.0/armtools/bin/../lib/gcc/arm-atollic-eabi/6.3.1/../../../../arm-atollic-eabi/lib/armv6-m\libc_nano.a(lib_a-mlock.o)
 .ARM.attributes
                0x00000000       0x2c c:/program files (x86)/atollic/truestudio for arm 8.0.0/armtools/bin/../lib/gcc/arm-atollic-eabi/6.3.1/../../../../arm-atollic-eabi/lib/armv6-m\libc_nano.a(lib_a-mlock.o)
 .text          0x00000000        0x0 c:/program files (x86)/atollic/truestudio for arm 8.0.0/armtools/bin/../lib/gcc/arm-atollic-eabi/6.3.1/../../../../arm-atollic-eabi/lib/armv6-m\libm.a(lib_a-s_lround.o)
 .data          0x00000000        0x0 c:/program files (x86)/atollic/truestudio for arm 8.0.0/armtools/bin/../lib/gcc/arm-atollic-eabi/6.3.1/../../../../arm-atollic-eabi/lib/armv6-m\libm.a(lib_a-s_lround.o)
 .bss           0x00000000        0x0 c:/program files (x86)/atollic/truestudio for arm 8.0.0/armtools/bin/../lib/gcc/arm-atollic-eabi/6.3.1/../../../../arm-atollic-eabi/lib/armv6-m\libm.a(lib_a-s_lround.o)
 .text          0x00000000        0x0 c:/program files (x86)/atollic/truestudio for arm 8.0.0/armtools/bin/../lib/gcc/arm-atollic-eabi/6.3.1/../../../../arm-atollic-eabi/lib/armv6-m\libm.a(lib_a-s_trunc.o)
 .data          0x00000000        0x0 c:/program files (x86)/atollic/truestudio for arm 8.0.0/armtools/bin/../lib/gcc/arm-atollic-eabi/6.3.1/../../../../arm-atollic-eabi/lib/armv6-m\libm.a(lib_a-s_trunc.o)
 .bss           0x00000000        0x0 c:/program files (x86)/atollic/truestudio for arm 8.0.0/armtools/bin/../lib/gcc/arm-atollic-eabi/6.3.1/../../../../arm-atollic-eabi/lib/armv6-m\libm.a(lib_a-s_trunc.o)
 .text          0x00000000        0x0 c:/program files (x86)/atollic/truestudio for arm 8.0.0/armtools/bin/../lib/gcc/arm-atollic-eabi/6.3.1/../../../../arm-atollic-eabi/lib/armv6-m\libm.a(lib_a-sf_ceil.o)
 .data          0x00000000        0x0 c:/program files (x86)/atollic/truestudio for arm 8.0.0/armtools/bin/../lib/gcc/arm-atollic-eabi/6.3.1/../../../../arm-atollic-eabi/lib/armv6-m\libm.a(lib_a-sf_ceil.o)
 .bss           0x00000000        0x0 c:/program files (x86)/atollic/truestudio for arm 8.0.0/armtools/bin/../lib/gcc/arm-atollic-eabi/6.3.1/../../../../arm-atollic-eabi/lib/armv6-m\libm.a(lib_a-sf_ceil.o)
 .text          0x00000000        0x0 c:/program files (x86)/atollic/truestudio for arm 8.0.0/armtools/bin/../lib/gcc/arm-atollic-eabi/6.3.1/../../../../arm-atollic-eabi/lib/armv6-m\libm.a(lib_a-sf_cos.o)
 .data          0x00000000        0x0 c:/program files (x86)/atollic/truestudio for arm 8.0.0/armtools/bin/../lib/gcc/arm-atollic-eabi/6.3.1/../../../../arm-atollic-eabi/lib/armv6-m\libm.a(lib_a-sf_cos.o)
 .bss           0x00000000        0x0 c:/program files (x86)/atollic/truestudio for arm 8.0.0/armtools/bin/../lib/gcc/arm-atollic-eabi/6.3.1/../../../../arm-atollic-eabi/lib/armv6-m\libm.a(lib_a-sf_cos.o)
 .text          0x00000000        0x0 c:/program files (x86)/atollic/truestudio for arm 8.0.0/armtools/bin/../lib/gcc/arm-atollic-eabi/6.3.1/../../../../arm-atollic-eabi/lib/armv6-m\libm.a(lib_a-sf_floor.o)
 .data          0x00000000        0x0 c:/program files (x86)/atollic/truestudio for arm 8.0.0/armtools/bin/../lib/gcc/arm-atollic-eabi/6.3.1/../../../../arm-atollic-eabi/lib/armv6-m\libm.a(lib_a-sf_floor.o)
 .bss           0x00000000        0x0 c:/program files (x86)/atollic/truestudio for arm 8.0.0/armtools/bin/../lib/gcc/arm-atollic-eabi/6.3.1/../../../../arm-atollic-eabi/lib/armv6-m\libm.a(lib_a-sf_floor.o)
 .text          0x00000000        0x0 c:/program files (x86)/atollic/truestudio for arm 8.0.0/armtools/bin/../lib/gcc/arm-atollic-eabi/6.3.1/../../../../arm-atollic-eabi/lib/armv6-m\libm.a(lib_a-sf_round.o)
 .data          0x00000000        0x0 c:/program files (x86)/atollic/truestudio for arm 8.0.0/armtools/bin/../lib/gcc/arm-atollic-eabi/6.3.1/../../../../arm-atollic-eabi/lib/armv6-m\libm.a(lib_a-sf_round.o)
 .bss           0x00000000        0x0 c:/program files (x86)/atollic/truestudio for arm 8.0.0/armtools/bin/../lib/gcc/arm-atollic-eabi/6.3.1/../../../../arm-atollic-eabi/lib/armv6-m\libm.a(lib_a-sf_round.o)
 .text          0x00000000        0x0 c:/program files (x86)/atollic/truestudio for arm 8.0.0/armtools/bin/../lib/gcc/arm-atollic-eabi/6.3.1/../../../../arm-atollic-eabi/lib/armv6-m\libm.a(lib_a-sf_sin.o)
 .data          0x00000000        0x0 c:/program files (x86)/atollic/truestudio for arm 8.0.0/armtools/bin/../lib/gcc/arm-atollic-eabi/6.3.1/../../../../arm-atollic-eabi/lib/armv6-m\libm.a(lib_a-sf_sin.o)
 .bss           0x00000000        0x0 c:/program files (x86)/atollic/truestudio for arm 8.0.0/armtools/bin/../lib/gcc/arm-atollic-eabi/6.3.1/../../../../arm-atollic-eabi/lib/armv6-m\libm.a(lib_a-sf_sin.o)
 .text          0x00000000        0x0 c:/program files (x86)/atollic/truestudio for arm 8.0.0/armtools/bin/../lib/gcc/arm-atollic-eabi/6.3.1/../../../../arm-atollic-eabi/lib/armv6-m\libm.a(lib_a-wf_atan2.o)
 .data          0x00000000        0x0 c:/program files (x86)/atollic/truestudio for arm 8.0.0/armtools/bin/../lib/gcc/arm-atollic-eabi/6.3.1/../../../../arm-atollic-eabi/lib/armv6-m\libm.a(lib_a-wf_atan2.o)
 .bss           0x00000000        0x0 c:/program files (x86)/atollic/truestudio for arm 8.0.0/armtools/bin/../lib/gcc/arm-atollic-eabi/6.3.1/../../../../arm-atollic-eabi/lib/armv6-m\libm.a(lib_a-wf_atan2.o)
 .text          0x00000000        0x0 c:/program files (x86)/atollic/truestudio for arm 8.0.0/armtools/bin/../lib/gcc/arm-atollic-eabi/6.3.1/../../../../arm-atollic-eabi/lib/armv6-m\libm.a(lib_a-wf_sqrt.o)
 .data          0x00000000        0x0 c:/program files (x86)/atollic/truestudio for arm 8.0.0/armtools/bin/../lib/gcc/arm-atollic-eabi/6.3.1/../../../../arm-atollic-eabi/lib/armv6-m\libm.a(lib_a-wf_sqrt.o)
 .bss           0x00000000        0x0 c:/program files (x86)/atollic/truestudio for arm 8.0.0/armtools/bin/../lib/gcc/arm-atollic-eabi/6.3.1/../../../../arm-atollic-eabi/lib/armv6-m\libm.a(lib_a-wf_sqrt.o)
 .text          0x00000000        0x0 c:/program files (x86)/atollic/truestudio for arm 8.0.0/armtools/bin/../lib/gcc/arm-atollic-eabi/6.3.1/../../../../arm-atollic-eabi/lib/armv6-m\libm.a(lib_a-ef_atan2.o)
 .data          0x00000000        0x0 c:/program files (x86)/atollic/truestudio for arm 8.0.0/armtools/bin/../lib/gcc/arm-atollic-eabi/6.3.1/../../../../arm-atollic-eabi/lib/armv6-m\libm.a(lib_a-ef_atan2.o)
 .bss           0x00000000        0x0 c:/program files (x86)/atollic/truestudio for arm 8.0.0/armtools/bin/../lib/gcc/arm-atollic-eabi/6.3.1/../../../../arm-atollic-eabi/lib/armv6-m\libm.a(lib_a-ef_atan2.o)
 .text          0x00000000        0x0 c:/program files (x86)/atollic/truestudio for arm 8.0.0/armtools/bin/../lib/gcc/arm-atollic-eabi/6.3.1/../../../../arm-atollic-eabi/lib/armv6-m\libm.a(lib_a-ef_rem_pio2.o)
 .data          0x00000000        0x0 c:/program files (x86)/atollic/truestudio for arm 8.0.0/armtools/bin/../lib/gcc/arm-atollic-eabi/6.3.1/../../../../arm-atollic-eabi/lib/armv6-m\libm.a(lib_a-ef_rem_pio2.o)
 .bss           0x00000000        0x0 c:/program files (x86)/atollic/truestudio for arm 8.0.0/armtools/bin/../lib/gcc/arm-atollic-eabi/6.3.1/../../../../arm-atollic-eabi/lib/armv6-m\libm.a(lib_a-ef_rem_pio2.o)
 .text          0x00000000        0x0 c:/program files (x86)/atollic/truestudio for arm 8.0.0/armtools/bin/../lib/gcc/arm-atollic-eabi/6.3.1/../../../../arm-atollic-eabi/lib/armv6-m\libm.a(lib_a-ef_sqrt.o)
 .data          0x00000000        0x0 c:/program files (x86)/atollic/truestudio for arm 8.0.0/armtools/bin/../lib/gcc/arm-atollic-eabi/6.3.1/../../../../arm-atollic-eabi/lib/armv6-m\libm.a(lib_a-ef_sqrt.o)
 .bss           0x00000000        0x0 c:/program files (x86)/atollic/truestudio for arm 8.0.0/armtools/bin/../lib/gcc/arm-atollic-eabi/6.3.1/../../../../arm-atollic-eabi/lib/armv6-m\libm.a(lib_a-ef_sqrt.o)
 .text          0x00000000        0x0 c:/program files (x86)/atollic/truestudio for arm 8.0.0/armtools/bin/../lib/gcc/arm-atollic-eabi/6.3.1/../../../../arm-atollic-eabi/lib/armv6-m\libm.a(lib_a-kf_cos.o)
 .data          0x00000000        0x0 c:/program files (x86)/atollic/truestudio for arm 8.0.0/armtools/bin/../lib/gcc/arm-atollic-eabi/6.3.1/../../../../arm-atollic-eabi/lib/armv6-m\libm.a(lib_a-kf_cos.o)
 .bss           0x00000000        0x0 c:/program files (x86)/atollic/truestudio for arm 8.0.0/armtools/bin/../lib/gcc/arm-atollic-eabi/6.3.1/../../../../arm-atollic-eabi/lib/armv6-m\libm.a(lib_a-kf_cos.o)
 .text          0x00000000        0x0 c:/program files (x86)/atollic/truestudio for arm 8.0.0/armtools/bin/../lib/gcc/arm-atollic-eabi/6.3.1/../../../../arm-atollic-eabi/lib/armv6-m\libm.a(lib_a-kf_rem_pio2.o)
 .data          0x00000000        0x0 c:/program files (x86)/atollic/truestudio for arm 8.0.0/armtools/bin/../lib/gcc/arm-atollic-eabi/6.3.1/../../../../arm-atollic-eabi/lib/armv6-m\libm.a(lib_a-kf_rem_pio2.o)
 .bss           0x00000000        0x0 c:/program files (x86)/atollic/truestudio for arm 8.0.0/armtools/bin/../lib/gcc/arm-atollic-eabi/6.3.1/../../../../arm-atollic-eabi/lib/armv6-m\libm.a(lib_a-kf_rem_pio2.o)
 .text          0x00000000        0x0 c:/program files (x86)/atollic/truestudio for arm 8.0.0/armtools/bin/../lib/gcc/arm-atollic-eabi/6.3.1/../../../../arm-atollic-eabi/lib/armv6-m\libm.a(lib_a-kf_sin.o)
 .data          0x00000000        0x0 c:/program files (x86)/atollic/truestudio for arm 8.0.0/armtools/bin/../lib/gcc/arm-atollic-eabi/6.3.1/../../../../arm-atollic-eabi/lib/armv6-m\libm.a(lib_a-kf_sin.o)
 .bss           0x00000000        0x0 c:/program files (x86)/atollic/truestudio for arm 8.0.0/armtools/bin/../lib/gcc/arm-atollic-eabi/6.3.1/../../../../arm-atollic-eabi/lib/armv6-m\libm.a(lib_a-kf_sin.o)
 .text          0x00000000        0x0 c:/program files (x86)/atollic/truestudio for arm 8.0.0/armtools/bin/../lib/gcc/arm-atollic-eabi/6.3.1/../../../../arm-atollic-eabi/lib/armv6-m\libm.a(lib_a-s_lib_ver.o)
 .data          0x00000000        0x0 c:/program files (x86)/atollic/truestudio for arm 8.0.0/armtools/bin/../lib/gcc/arm-atollic-eabi/6.3.1/../../../../arm-atollic-eabi/lib/armv6-m\libm.a(lib_a-s_lib_ver.o)
 .bss           0x00000000        0x0 c:/program files (x86)/atollic/truestudio for arm 8.0.0/armtools/bin/../lib/gcc/arm-atollic-eabi/6.3.1/../../../../arm-atollic-eabi/lib/armv6-m\libm.a(lib_a-s_lib_ver.o)
 .text          0x00000000        0x0 c:/program files (x86)/atollic/truestudio for arm 8.0.0/armtools/bin/../lib/gcc/arm-atollic-eabi/6.3.1/../../../../arm-atollic-eabi/lib/armv6-m\libm.a(lib_a-s_matherr.o)
 .data          0x00000000        0x0 c:/program files (x86)/atollic/truestudio for arm 8.0.0/armtools/bin/../lib/gcc/arm-atollic-eabi/6.3.1/../../../../arm-atollic-eabi/lib/armv6-m\libm.a(lib_a-s_matherr.o)
 .bss           0x00000000        0x0 c:/program files (x86)/atollic/truestudio for arm 8.0.0/armtools/bin/../lib/gcc/arm-atollic-eabi/6.3.1/../../../../arm-atollic-eabi/lib/armv6-m\libm.a(lib_a-s_matherr.o)
 .text          0x00000000        0x0 c:/program files (x86)/atollic/truestudio for arm 8.0.0/armtools/bin/../lib/gcc/arm-atollic-eabi/6.3.1/../../../../arm-atollic-eabi/lib/armv6-m\libm.a(lib_a-sf_atan.o)
 .data          0x00000000        0x0 c:/program files (x86)/atollic/truestudio for arm 8.0.0/armtools/bin/../lib/gcc/arm-atollic-eabi/6.3.1/../../../../arm-atollic-eabi/lib/armv6-m\libm.a(lib_a-sf_atan.o)
 .bss           0x00000000        0x0 c:/program files (x86)/atollic/truestudio for arm 8.0.0/armtools/bin/../lib/gcc/arm-atollic-eabi/6.3.1/../../../../arm-atollic-eabi/lib/armv6-m\libm.a(lib_a-sf_atan.o)
 .text          0x00000000        0x0 c:/program files (x86)/atollic/truestudio for arm 8.0.0/armtools/bin/../lib/gcc/arm-atollic-eabi/6.3.1/../../../../arm-atollic-eabi/lib/armv6-m\libm.a(lib_a-sf_fabs.o)
 .data          0x00000000        0x0 c:/program files (x86)/atollic/truestudio for arm 8.0.0/armtools/bin/../lib/gcc/arm-atollic-eabi/6.3.1/../../../../arm-atollic-eabi/lib/armv6-m\libm.a(lib_a-sf_fabs.o)
 .bss           0x00000000        0x0 c:/program files (x86)/atollic/truestudio for arm 8.0.0/armtools/bin/../lib/gcc/arm-atollic-eabi/6.3.1/../../../../arm-atollic-eabi/lib/armv6-m\libm.a(lib_a-sf_fabs.o)
 .text          0x00000000        0x0 c:/program files (x86)/atollic/truestudio for arm 8.0.0/armtools/bin/../lib/gcc/arm-atollic-eabi/6.3.1/../../../../arm-atollic-eabi/lib/armv6-m\libm.a(lib_a-sf_scalbn.o)
 .data          0x00000000        0x0 c:/program files (x86)/atollic/truestudio for arm 8.0.0/armtools/bin/../lib/gcc/arm-atollic-eabi/6.3.1/../../../../arm-atollic-eabi/lib/armv6-m\libm.a(lib_a-sf_scalbn.o)
 .bss           0x00000000        0x0 c:/program files (x86)/atollic/truestudio for arm 8.0.0/armtools/bin/../lib/gcc/arm-atollic-eabi/6.3.1/../../../../arm-atollic-eabi/lib/armv6-m\libm.a(lib_a-sf_scalbn.o)
 .text          0x00000000        0x0 c:/program files (x86)/atollic/truestudio for arm 8.0.0/armtools/bin/../lib/gcc/arm-atollic-eabi/6.3.1/../../../../arm-atollic-eabi/lib/armv6-m\libm.a(lib_a-sf_copysign.o)
 .data          0x00000000        0x0 c:/program files (x86)/atollic/truestudio for arm 8.0.0/armtools/bin/../lib/gcc/arm-atollic-eabi/6.3.1/../../../../arm-atollic-eabi/lib/armv6-m\libm.a(lib_a-sf_copysign.o)
 .bss           0x00000000        0x0 c:/program files (x86)/atollic/truestudio for arm 8.0.0/armtools/bin/../lib/gcc/arm-atollic-eabi/6.3.1/../../../../arm-atollic-eabi/lib/armv6-m\libm.a(lib_a-sf_copysign.o)
 .text          0x00000000        0x0 c:/program files (x86)/atollic/truestudio for arm 8.0.0/armtools/bin/../lib/gcc/arm-atollic-eabi/6.3.1/../../../../arm-atollic-eabi/lib/armv6-m\libc_nano.a(lib_a-errno.o)
 .data          0x00000000        0x0 c:/program files (x86)/atollic/truestudio for arm 8.0.0/armtools/bin/../lib/gcc/arm-atollic-eabi/6.3.1/../../../../arm-atollic-eabi/lib/armv6-m\libc_nano.a(lib_a-errno.o)
 .bss           0x00000000        0x0 c:/program files (x86)/atollic/truestudio for arm 8.0.0/armtools/bin/../lib/gcc/arm-atollic-eabi/6.3.1/../../../../arm-atollic-eabi/lib/armv6-m\libc_nano.a(lib_a-errno.o)
 .data          0x00000000        0x0 c:/program files (x86)/atollic/truestudio for arm 8.0.0/armtools/bin/../lib/gcc/arm-atollic-eabi/6.3.1/armv6-m\libgcc.a(_thumb1_case_uqi.o)
 .bss           0x00000000        0x0 c:/program files (x86)/atollic/truestudio for arm 8.0.0/armtools/bin/../lib/gcc/arm-atollic-eabi/6.3.1/armv6-m\libgcc.a(_thumb1_case_uqi.o)
 .data          0x00000000        0x0 c:/program files (x86)/atollic/truestudio for arm 8.0.0/armtools/bin/../lib/gcc/arm-atollic-eabi/6.3.1/armv6-m\libgcc.a(_udivsi3.o)
 .bss           0x00000000        0x0 c:/program files (x86)/atollic/truestudio for arm 8.0.0/armtools/bin/../lib/gcc/arm-atollic-eabi/6.3.1/armv6-m\libgcc.a(_udivsi3.o)
 .text          0x00000000      0x1d4 c:/program files (x86)/atollic/truestudio for arm 8.0.0/armtools/bin/../lib/gcc/arm-atollic-eabi/6.3.1/armv6-m\libgcc.a(_divsi3.o)
 .data          0x00000000        0x0 c:/program files (x86)/atollic/truestudio for arm 8.0.0/armtools/bin/../lib/gcc/arm-atollic-eabi/6.3.1/armv6-m\libgcc.a(_divsi3.o)
 .bss           0x00000000        0x0 c:/program files (x86)/atollic/truestudio for arm 8.0.0/armtools/bin/../lib/gcc/arm-atollic-eabi/6.3.1/armv6-m\libgcc.a(_divsi3.o)
 .debug_frame   0x00000000       0x20 c:/program files (x86)/atollic/truestudio for arm 8.0.0/armtools/bin/../lib/gcc/arm-atollic-eabi/6.3.1/armv6-m\libgcc.a(_divsi3.o)
 .ARM.attributes
                0x00000000       0x1e c:/program files (x86)/atollic/truestudio for arm 8.0.0/armtools/bin/../lib/gcc/arm-atollic-eabi/6.3.1/armv6-m\libgcc.a(_divsi3.o)
 .data          0x00000000        0x0 c:/program files (x86)/atollic/truestudio for arm 8.0.0/armtools/bin/../lib/gcc/arm-atollic-eabi/6.3.1/armv6-m\libgcc.a(_dvmd_tls.o)
 .bss           0x00000000        0x0 c:/program files (x86)/atollic/truestudio for arm 8.0.0/armtools/bin/../lib/gcc/arm-atollic-eabi/6.3.1/armv6-m\libgcc.a(_dvmd_tls.o)
 .data          0x00000000        0x0 c:/program files (x86)/atollic/truestudio for arm 8.0.0/armtools/bin/../lib/gcc/arm-atollic-eabi/6.3.1/armv6-m\libgcc.a(_arm_cmpdf2.o)
 .bss           0x00000000        0x0 c:/program files (x86)/atollic/truestudio for arm 8.0.0/armtools/bin/../lib/gcc/arm-atollic-eabi/6.3.1/armv6-m\libgcc.a(_arm_cmpdf2.o)
 .data          0x00000000        0x0 c:/program files (x86)/atollic/truestudio for arm 8.0.0/armtools/bin/../lib/gcc/arm-atollic-eabi/6.3.1/armv6-m\libgcc.a(_arm_cmpsf2.o)
 .bss           0x00000000        0x0 c:/program files (x86)/atollic/truestudio for arm 8.0.0/armtools/bin/../lib/gcc/arm-atollic-eabi/6.3.1/armv6-m\libgcc.a(_arm_cmpsf2.o)
 .data          0x00000000        0x0 c:/program files (x86)/atollic/truestudio for arm 8.0.0/armtools/bin/../lib/gcc/arm-atollic-eabi/6.3.1/armv6-m\libgcc.a(_fixunssfsi.o)
 .bss           0x00000000        0x0 c:/program files (x86)/atollic/truestudio for arm 8.0.0/armtools/bin/../lib/gcc/arm-atollic-eabi/6.3.1/armv6-m\libgcc.a(_fixunssfsi.o)
 .data          0x00000000        0x0 c:/program files (x86)/atollic/truestudio for arm 8.0.0/armtools/bin/../lib/gcc/arm-atollic-eabi/6.3.1/armv6-m\libgcc.a(_fixunsdfsi.o)
 .bss           0x00000000        0x0 c:/program files (x86)/atollic/truestudio for arm 8.0.0/armtools/bin/../lib/gcc/arm-atollic-eabi/6.3.1/armv6-m\libgcc.a(_fixunsdfsi.o)
 .data          0x00000000        0x0 c:/program files (x86)/atollic/truestudio for arm 8.0.0/armtools/bin/../lib/gcc/arm-atollic-eabi/6.3.1/armv6-m\libgcc.a(addsf3.o)
 .bss           0x00000000        0x0 c:/program files (x86)/atollic/truestudio for arm 8.0.0/armtools/bin/../lib/gcc/arm-atollic-eabi/6.3.1/armv6-m\libgcc.a(addsf3.o)
 .data          0x00000000        0x0 c:/program files (x86)/atollic/truestudio for arm 8.0.0/armtools/bin/../lib/gcc/arm-atollic-eabi/6.3.1/armv6-m\libgcc.a(divsf3.o)
 .bss           0x00000000        0x0 c:/program files (x86)/atollic/truestudio for arm 8.0.0/armtools/bin/../lib/gcc/arm-atollic-eabi/6.3.1/armv6-m\libgcc.a(divsf3.o)
 .data          0x00000000        0x0 c:/program files (x86)/atollic/truestudio for arm 8.0.0/armtools/bin/../lib/gcc/arm-atollic-eabi/6.3.1/armv6-m\libgcc.a(eqsf2.o)
 .bss           0x00000000        0x0 c:/program files (x86)/atollic/truestudio for arm 8.0.0/armtools/bin/../lib/gcc/arm-atollic-eabi/6.3.1/armv6-m\libgcc.a(eqsf2.o)
 .data          0x00000000        0x0 c:/program files (x86)/atollic/truestudio for arm 8.0.0/armtools/bin/../lib/gcc/arm-atollic-eabi/6.3.1/armv6-m\libgcc.a(gesf2.o)
 .bss           0x00000000        0x0 c:/program files (x86)/atollic/truestudio for arm 8.0.0/armtools/bin/../lib/gcc/arm-atollic-eabi/6.3.1/armv6-m\libgcc.a(gesf2.o)
 .data          0x00000000        0x0 c:/program files (x86)/atollic/truestudio for arm 8.0.0/armtools/bin/../lib/gcc/arm-atollic-eabi/6.3.1/armv6-m\libgcc.a(lesf2.o)
 .bss           0x00000000        0x0 c:/program files (x86)/atollic/truestudio for arm 8.0.0/armtools/bin/../lib/gcc/arm-atollic-eabi/6.3.1/armv6-m\libgcc.a(lesf2.o)
 .data          0x00000000        0x0 c:/program files (x86)/atollic/truestudio for arm 8.0.0/armtools/bin/../lib/gcc/arm-atollic-eabi/6.3.1/armv6-m\libgcc.a(mulsf3.o)
 .bss           0x00000000        0x0 c:/program files (x86)/atollic/truestudio for arm 8.0.0/armtools/bin/../lib/gcc/arm-atollic-eabi/6.3.1/armv6-m\libgcc.a(mulsf3.o)
 .data          0x00000000        0x0 c:/program files (x86)/atollic/truestudio for arm 8.0.0/armtools/bin/../lib/gcc/arm-atollic-eabi/6.3.1/armv6-m\libgcc.a(subsf3.o)
 .bss           0x00000000        0x0 c:/program files (x86)/atollic/truestudio for arm 8.0.0/armtools/bin/../lib/gcc/arm-atollic-eabi/6.3.1/armv6-m\libgcc.a(subsf3.o)
 .data          0x00000000        0x0 c:/program files (x86)/atollic/truestudio for arm 8.0.0/armtools/bin/../lib/gcc/arm-atollic-eabi/6.3.1/armv6-m\libgcc.a(unordsf2.o)
 .bss           0x00000000        0x0 c:/program files (x86)/atollic/truestudio for arm 8.0.0/armtools/bin/../lib/gcc/arm-atollic-eabi/6.3.1/armv6-m\libgcc.a(unordsf2.o)
 .data          0x00000000        0x0 c:/program files (x86)/atollic/truestudio for arm 8.0.0/armtools/bin/../lib/gcc/arm-atollic-eabi/6.3.1/armv6-m\libgcc.a(fixsfsi.o)
 .bss           0x00000000        0x0 c:/program files (x86)/atollic/truestudio for arm 8.0.0/armtools/bin/../lib/gcc/arm-atollic-eabi/6.3.1/armv6-m\libgcc.a(fixsfsi.o)
 .data          0x00000000        0x0 c:/program files (x86)/atollic/truestudio for arm 8.0.0/armtools/bin/../lib/gcc/arm-atollic-eabi/6.3.1/armv6-m\libgcc.a(floatsisf.o)
 .bss           0x00000000        0x0 c:/program files (x86)/atollic/truestudio for arm 8.0.0/armtools/bin/../lib/gcc/arm-atollic-eabi/6.3.1/armv6-m\libgcc.a(floatsisf.o)
 .data          0x00000000        0x0 c:/program files (x86)/atollic/truestudio for arm 8.0.0/armtools/bin/../lib/gcc/arm-atollic-eabi/6.3.1/armv6-m\libgcc.a(floatunsisf.o)
 .bss           0x00000000        0x0 c:/program files (x86)/atollic/truestudio for arm 8.0.0/armtools/bin/../lib/gcc/arm-atollic-eabi/6.3.1/armv6-m\libgcc.a(floatunsisf.o)
 .data          0x00000000        0x0 c:/program files (x86)/atollic/truestudio for arm 8.0.0/armtools/bin/../lib/gcc/arm-atollic-eabi/6.3.1/armv6-m\libgcc.a(adddf3.o)
 .bss           0x00000000        0x0 c:/program files (x86)/atollic/truestudio for arm 8.0.0/armtools/bin/../lib/gcc/arm-atollic-eabi/6.3.1/armv6-m\libgcc.a(adddf3.o)
 .data          0x00000000        0x0 c:/program files (x86)/atollic/truestudio for arm 8.0.0/armtools/bin/../lib/gcc/arm-atollic-eabi/6.3.1/armv6-m\libgcc.a(divdf3.o)
 .bss           0x00000000        0x0 c:/program files (x86)/atollic/truestudio for arm 8.0.0/armtools/bin/../lib/gcc/arm-atollic-eabi/6.3.1/armv6-m\libgcc.a(divdf3.o)
 .data          0x00000000        0x0 c:/program files (x86)/atollic/truestudio for arm 8.0.0/armtools/bin/../lib/gcc/arm-atollic-eabi/6.3.1/armv6-m\libgcc.a(eqdf2.o)
 .bss           0x00000000        0x0 c:/program files (x86)/atollic/truestudio for arm 8.0.0/armtools/bin/../lib/gcc/arm-atollic-eabi/6.3.1/armv6-m\libgcc.a(eqdf2.o)
 .data          0x00000000        0x0 c:/program files (x86)/atollic/truestudio for arm 8.0.0/armtools/bin/../lib/gcc/arm-atollic-eabi/6.3.1/armv6-m\libgcc.a(gedf2.o)
 .bss           0x00000000        0x0 c:/program files (x86)/atollic/truestudio for arm 8.0.0/armtools/bin/../lib/gcc/arm-atollic-eabi/6.3.1/armv6-m\libgcc.a(gedf2.o)
 .data          0x00000000        0x0 c:/program files (x86)/atollic/truestudio for arm 8.0.0/armtools/bin/../lib/gcc/arm-atollic-eabi/6.3.1/armv6-m\libgcc.a(ledf2.o)
 .bss           0x00000000        0x0 c:/program files (x86)/atollic/truestudio for arm 8.0.0/armtools/bin/../lib/gcc/arm-atollic-eabi/6.3.1/armv6-m\libgcc.a(ledf2.o)
 .data          0x00000000        0x0 c:/program files (x86)/atollic/truestudio for arm 8.0.0/armtools/bin/../lib/gcc/arm-atollic-eabi/6.3.1/armv6-m\libgcc.a(subdf3.o)
 .bss           0x00000000        0x0 c:/program files (x86)/atollic/truestudio for arm 8.0.0/armtools/bin/../lib/gcc/arm-atollic-eabi/6.3.1/armv6-m\libgcc.a(subdf3.o)
 .data          0x00000000        0x0 c:/program files (x86)/atollic/truestudio for arm 8.0.0/armtools/bin/../lib/gcc/arm-atollic-eabi/6.3.1/armv6-m\libgcc.a(fixdfsi.o)
 .bss           0x00000000        0x0 c:/program files (x86)/atollic/truestudio for arm 8.0.0/armtools/bin/../lib/gcc/arm-atollic-eabi/6.3.1/armv6-m\libgcc.a(fixdfsi.o)
 .data          0x00000000        0x0 c:/program files (x86)/atollic/truestudio for arm 8.0.0/armtools/bin/../lib/gcc/arm-atollic-eabi/6.3.1/armv6-m\libgcc.a(extendsfdf2.o)
 .bss           0x00000000        0x0 c:/program files (x86)/atollic/truestudio for arm 8.0.0/armtools/bin/../lib/gcc/arm-atollic-eabi/6.3.1/armv6-m\libgcc.a(extendsfdf2.o)
 .data          0x00000000        0x0 c:/program files (x86)/atollic/truestudio for arm 8.0.0/armtools/bin/../lib/gcc/arm-atollic-eabi/6.3.1/armv6-m\libgcc.a(truncdfsf2.o)
 .bss           0x00000000        0x0 c:/program files (x86)/atollic/truestudio for arm 8.0.0/armtools/bin/../lib/gcc/arm-atollic-eabi/6.3.1/armv6-m\libgcc.a(truncdfsf2.o)
 .data          0x00000000        0x0 c:/program files (x86)/atollic/truestudio for arm 8.0.0/armtools/bin/../lib/gcc/arm-atollic-eabi/6.3.1/armv6-m\libgcc.a(_clzsi2.o)
 .bss           0x00000000        0x0 c:/program files (x86)/atollic/truestudio for arm 8.0.0/armtools/bin/../lib/gcc/arm-atollic-eabi/6.3.1/armv6-m\libgcc.a(_clzsi2.o)
 .text          0x00000000        0x0 c:/program files (x86)/atollic/truestudio for arm 8.0.0/armtools/bin/../lib/gcc/arm-atollic-eabi/6.3.1/armv6-m/crtend.o
 .data          0x00000000        0x0 c:/program files (x86)/atollic/truestudio for arm 8.0.0/armtools/bin/../lib/gcc/arm-atollic-eabi/6.3.1/armv6-m/crtend.o
 .bss           0x00000000        0x0 c:/program files (x86)/atollic/truestudio for arm 8.0.0/armtools/bin/../lib/gcc/arm-atollic-eabi/6.3.1/armv6-m/crtend.o
 .eh_frame      0x00000000        0x4 c:/program files (x86)/atollic/truestudio for arm 8.0.0/armtools/bin/../lib/gcc/arm-atollic-eabi/6.3.1/armv6-m/crtend.o
 .ARM.attributes
                0x00000000       0x2c c:/program files (x86)/atollic/truestudio for arm 8.0.0/armtools/bin/../lib/gcc/arm-atollic-eabi/6.3.1/armv6-m/crtend.o
 .text          0x00000000        0x0 c:/program files (x86)/atollic/truestudio for arm 8.0.0/armtools/bin/../lib/gcc/arm-atollic-eabi/6.3.1/armv6-m/crtn.o
 .data          0x00000000        0x0 c:/program files (x86)/atollic/truestudio for arm 8.0.0/armtools/bin/../lib/gcc/arm-atollic-eabi/6.3.1/armv6-m/crtn.o
 .bss           0x00000000        0x0 c:/program files (x86)/atollic/truestudio for arm 8.0.0/armtools/bin/../lib/gcc/arm-atollic-eabi/6.3.1/armv6-m/crtn.o

Memory Configuration

Name             Origin             Length             Attributes
FLASH            0x08000000         0x00010000         xr
RAM              0x20000000         0x00002000         xrw
MEMORY_B1        0x60000000         0x00000000         xr
*default*        0x00000000         0xffffffff

Linker script and memory map

LOAD c:/program files (x86)/atollic/truestudio for arm 8.0.0/armtools/bin/../lib/gcc/arm-atollic-eabi/6.3.1/armv6-m/crti.o
LOAD c:/program files (x86)/atollic/truestudio for arm 8.0.0/armtools/bin/../lib/gcc/arm-atollic-eabi/6.3.1/armv6-m/crtbegin.o
LOAD Drivers\STM32F0xx_StdPeriph_Driver\src\stm32f0xx_adc.o
LOAD Drivers\STM32F0xx_StdPeriph_Driver\src\stm32f0xx_can.o
LOAD Drivers\STM32F0xx_StdPeriph_Driver\src\stm32f0xx_cec.o
LOAD Drivers\STM32F0xx_StdPeriph_Driver\src\stm32f0xx_comp.o
LOAD Drivers\STM32F0xx_StdPeriph_Driver\src\stm32f0xx_crc.o
LOAD Drivers\STM32F0xx_StdPeriph_Driver\src\stm32f0xx_crs.o
LOAD Drivers\STM32F0xx_StdPeriph_Driver\src\stm32f0xx_dac.o
LOAD Drivers\STM32F0xx_StdPeriph_Driver\src\stm32f0xx_dbgmcu.o
LOAD Drivers\STM32F0xx_StdPeriph_Driver\src\stm32f0xx_dma.o
LOAD Drivers\STM32F0xx_StdPeriph_Driver\src\stm32f0xx_exti.o
LOAD Drivers\STM32F0xx_StdPeriph_Driver\src\stm32f0xx_flash.o
LOAD Drivers\STM32F0xx_StdPeriph_Driver\src\stm32f0xx_gpio.o
LOAD Drivers\STM32F0xx_StdPeriph_Driver\src\stm32f0xx_i2c.o
LOAD Drivers\STM32F0xx_StdPeriph_Driver\src\stm32f0xx_iwdg.o
LOAD Drivers\STM32F0xx_StdPeriph_Driver\src\stm32f0xx_misc.o
LOAD Drivers\STM32F0xx_StdPeriph_Driver\src\stm32f0xx_pwr.o
LOAD Drivers\STM32F0xx_StdPeriph_Driver\src\stm32f0xx_rcc.o
LOAD Drivers\STM32F0xx_StdPeriph_Driver\src\stm32f0xx_rtc.o
LOAD Drivers\STM32F0xx_StdPeriph_Driver\src\stm32f0xx_spi.o
LOAD Drivers\STM32F0xx_StdPeriph_Driver\src\stm32f0xx_syscfg.o
LOAD Drivers\STM32F0xx_StdPeriph_Driver\src\stm32f0xx_tim.o
LOAD Drivers\STM32F0xx_StdPeriph_Driver\src\stm32f0xx_usart.o
LOAD Drivers\STM32F0xx_StdPeriph_Driver\src\stm32f0xx_wwdg.o
LOAD src\grbl\coolant_control.o
LOAD src\grbl\eeprom.o
LOAD src\grbl\gcode.o
LOAD src\grbl\jog.o
LOAD src\grbl\limits.o
LOAD src\grbl\motion_control.o
LOAD src\grbl\nuts_bolts.o
LOAD src\grbl\planner.o
LOAD src\grbl\print.o
LOAD src\grbl\probe.o
LOAD src\grbl\protocol.o
LOAD src\grbl\report.o
LOAD src\grbl\serial.o
LOAD src\grbl\settings.o
LOAD src\grbl\spindle_control.o
LOAD src\grbl\stepper.o
LOAD src\grbl\system.o
LOAD src\main.o
LOAD src\startup_stm32f051.o
LOAD src\stm32f0xx_it.o
LOAD src\syscalls.o
LOAD src\system_stm32f0xx.o
LOAD src\tiny_printf.o
                0x00000080                malloc_getpagesize_P = 0x80
START GROUP
LOAD c:/program files (x86)/atollic/truestudio for arm 8.0.0/armtools/bin/../lib/gcc/arm-atollic-eabi/6.3.1/../../../../arm-atollic-eabi/lib/armv6-m\libc_nano.a
LOAD c:/program files (x86)/atollic/truestudio for arm 8.0.0/armtools/bin/../lib/gcc/arm-atollic-eabi/6.3.1/../../../../arm-atollic-eabi/lib/armv6-m\libm.a
END GROUP
START GROUP
LOAD c:/program files (x86)/atollic/truestudio for arm 8.0.0/armtools/bin/../lib/gcc/arm-atollic-eabi/6.3.1/armv6-m\libgcc.a
LOAD c:/program files (x86)/atollic/truestudio for arm 8.0.0/armtools/bin/../lib/gcc/arm-atollic-eabi/6.3.1/../../../../arm-atollic-eabi/lib/armv6-m\libc_nano.a
END GROUP
START GROUP
LOAD c:/program files (x86)/atollic/truestudio for arm 8.0.0/armtools/bin/../lib/gcc/arm-atollic-eabi/6.3.1/armv6-m\libgcc.a
LOAD c:/program files (x86)/atollic/truestudio for arm 8.0.0/armtools/bin/../lib/gcc/arm-atollic-eabi/6.3.1/../../../../arm-atollic-eabi/lib/armv6-m\libc_nano.a
LOAD c:/program files (x86)/atollic/truestudio for arm 8.0.0/armtools/bin/../lib/gcc/arm-atollic-eabi/6.3.1/../../../../arm-atollic-eabi/lib/armv6-m\libnosys.a
END GROUP
START GROUP
LOAD c:/program files (x86)/atollic/truestudio for arm 8.0.0/armtools/bin/../lib/gcc/arm-atollic-eabi/6.3.1/armv6-m\libgcc.a
LOAD c:/program files (x86)/atollic/truestudio for arm 8.0.0/armtools/bin/../lib/gcc/arm-atollic-eabi/6.3.1/../../../../arm-atollic-eabi/lib/armv6-m\libc_nano.a
LOAD c:/program files (x86)/atollic/truestudio for arm 8.0.0/armtools/bin/../lib/gcc/arm-atollic-eabi/6.3.1/../../../../arm-atollic-eabi/lib/armv6-m\libnosys.a
END GROUP
LOAD c:/program files (x86)/atollic/truestudio for arm 8.0.0/armtools/bin/../lib/gcc/arm-atollic-eabi/6.3.1/armv6-m/crtend.o
LOAD c:/program files (x86)/atollic/truestudio for arm 8.0.0/armtools/bin/../lib/gcc/arm-atollic-eabi/6.3.1/armv6-m/crtn.o
                0x20002000                _estack = 0x20002000
                0x00000000                _Min_Heap_Size = 0x0
                0x00000080                _Min_Stack_Size = 0x80

.isr_vector     0x08000000       0xc0
                0x08000000                . = ALIGN (0x4)
 *(.isr_vector)
 .isr_vector    0x08000000       0xc0 src\startup_stm32f051.o
                0x08000000                g_pfnVectors
                0x080000c0                . = ALIGN (0x4)

.text           0x080000c0     0xd804
                0x080000c0                . = ALIGN (0x4)
 *(.text)
 .text          0x080000c0       0x48 c:/program files (x86)/atollic/truestudio for arm 8.0.0/armtools/bin/../lib/gcc/arm-atollic-eabi/6.3.1/armv6-m/crtbegin.o
 .text          0x08000108       0x14 c:/program files (x86)/atollic/truestudio for arm 8.0.0/armtools/bin/../lib/gcc/arm-atollic-eabi/6.3.1/armv6-m\libgcc.a(_thumb1_case_uqi.o)
                0x08000108                __gnu_thumb1_case_uqi
 .text          0x0800011c      0x114 c:/program files (x86)/atollic/truestudio for arm 8.0.0/armtools/bin/../lib/gcc/arm-atollic-eabi/6.3.1/armv6-m\libgcc.a(_udivsi3.o)
                0x0800011c                __aeabi_uidiv
                0x0800011c                __udivsi3
                0x08000228                __aeabi_uidivmod
 .text          0x08000230        0x4 c:/program files (x86)/atollic/truestudio for arm 8.0.0/armtools/bin/../lib/gcc/arm-atollic-eabi/6.3.1/armv6-m\libgcc.a(_dvmd_tls.o)
                0x08000230                __aeabi_idiv0
                0x08000230                __aeabi_ldiv0
 .text          0x08000234       0x7c c:/program files (x86)/atollic/truestudio for arm 8.0.0/armtools/bin/../lib/gcc/arm-atollic-eabi/6.3.1/armv6-m\libgcc.a(_arm_cmpdf2.o)
                0x08000234                __aeabi_cdrcmple
                0x08000244                __aeabi_cdcmple
                0x08000244                __aeabi_cdcmpeq
                0x08000254                __aeabi_dcmpeq
                0x08000260                __aeabi_dcmplt
                0x08000274                __aeabi_dcmple
                0x08000288                __aeabi_dcmpgt
                0x0800029c                __aeabi_dcmpge
 .text          0x080002b0       0x74 c:/program files (x86)/atollic/truestudio for arm 8.0.0/armtools/bin/../lib/gcc/arm-atollic-eabi/6.3.1/armv6-m\libgcc.a(_arm_cmpsf2.o)
                0x080002b0                __aeabi_cfrcmple
                0x080002b8                __aeabi_cfcmpeq
                0x080002b8                __aeabi_cfcmple
                0x080002c8                __aeabi_fcmpeq
                0x080002d4                __aeabi_fcmplt
                0x080002e8                __aeabi_fcmple
                0x080002fc                __aeabi_fcmpgt
                0x08000310                __aeabi_fcmpge
 .text          0x08000324       0x30 c:/program files (x86)/atollic/truestudio for arm 8.0.0/armtools/bin/../lib/gcc/arm-atollic-eabi/6.3.1/armv6-m\libgcc.a(_fixunssfsi.o)
                0x08000324                __fixunssfsi
                0x08000324                __aeabi_f2uiz
 .text          0x08000354       0x3c c:/program files (x86)/atollic/truestudio for arm 8.0.0/armtools/bin/../lib/gcc/arm-atollic-eabi/6.3.1/armv6-m\libgcc.a(_fixunsdfsi.o)
                0x08000354                __aeabi_d2uiz
                0x08000354                __fixunsdfsi
 .text          0x08000390      0x324 c:/program files (x86)/atollic/truestudio for arm 8.0.0/armtools/bin/../lib/gcc/arm-atollic-eabi/6.3.1/armv6-m\libgcc.a(addsf3.o)
                0x08000390                __aeabi_fadd
 .text          0x080006b4      0x290 c:/program files (x86)/atollic/truestudio for arm 8.0.0/armtools/bin/../lib/gcc/arm-atollic-eabi/6.3.1/armv6-m\libgcc.a(divsf3.o)
                0x080006b4                __aeabi_fdiv
 .text          0x08000944       0x4c c:/program files (x86)/atollic/truestudio for arm 8.0.0/armtools/bin/../lib/gcc/arm-atollic-eabi/6.3.1/armv6-m\libgcc.a(eqsf2.o)
                0x08000944                __eqsf2
                0x08000944                __nesf2
 .text          0x08000990       0x80 c:/program files (x86)/atollic/truestudio for arm 8.0.0/armtools/bin/../lib/gcc/arm-atollic-eabi/6.3.1/armv6-m\libgcc.a(gesf2.o)
                0x08000990                __gesf2
                0x08000990                __gtsf2
 .text          0x08000a10       0x84 c:/program files (x86)/atollic/truestudio for arm 8.0.0/armtools/bin/../lib/gcc/arm-atollic-eabi/6.3.1/armv6-m\libgcc.a(lesf2.o)
                0x08000a10                __ltsf2
                0x08000a10                __lesf2
 .text          0x08000a94      0x240 c:/program files (x86)/atollic/truestudio for arm 8.0.0/armtools/bin/../lib/gcc/arm-atollic-eabi/6.3.1/armv6-m\libgcc.a(mulsf3.o)
                0x08000a94                __aeabi_fmul
 .text          0x08000cd4      0x338 c:/program files (x86)/atollic/truestudio for arm 8.0.0/armtools/bin/../lib/gcc/arm-atollic-eabi/6.3.1/armv6-m\libgcc.a(subsf3.o)
                0x08000cd4                __aeabi_fsub
 .text          0x0800100c       0x30 c:/program files (x86)/atollic/truestudio for arm 8.0.0/armtools/bin/../lib/gcc/arm-atollic-eabi/6.3.1/armv6-m\libgcc.a(unordsf2.o)
                0x0800100c                __aeabi_fcmpun
 .text          0x0800103c       0x40 c:/program files (x86)/atollic/truestudio for arm 8.0.0/armtools/bin/../lib/gcc/arm-atollic-eabi/6.3.1/armv6-m\libgcc.a(fixsfsi.o)
                0x0800103c                __aeabi_f2iz
 .text          0x0800107c       0xa0 c:/program files (x86)/atollic/truestudio for arm 8.0.0/armtools/bin/../lib/gcc/arm-atollic-eabi/6.3.1/armv6-m\libgcc.a(floatsisf.o)
                0x0800107c                __aeabi_i2f
 .text          0x0800111c       0x8c c:/program files (x86)/atollic/truestudio for arm 8.0.0/armtools/bin/../lib/gcc/arm-atollic-eabi/6.3.1/armv6-m\libgcc.a(floatunsisf.o)
                0x0800111c                __aeabi_ui2f
 .text          0x080011a8      0x620 c:/program files (x86)/atollic/truestudio for arm 8.0.0/armtools/bin/../lib/gcc/arm-atollic-eabi/6.3.1/armv6-m\libgcc.a(adddf3.o)
                0x080011a8                __aeabi_dadd
 .text          0x080017c8      0x668 c:/program files (x86)/atollic/truestudio for arm 8.0.0/armtools/bin/../lib/gcc/arm-atollic-eabi/6.3.1/armv6-m\libgcc.a(divdf3.o)
                0x080017c8                __aeabi_ddiv
 .text          0x08001e30       0x74 c:/program files (x86)/atollic/truestudio for arm 8.0.0/armtools/bin/../lib/gcc/arm-atollic-eabi/6.3.1/armv6-m\libgcc.a(eqdf2.o)
                0x08001e30                __nedf2
                0x08001e30                __eqdf2
 .text          0x08001ea4       0xc8 c:/program files (x86)/atollic/truestudio for arm 8.0.0/armtools/bin/../lib/gcc/arm-atollic-eabi/6.3.1/armv6-m\libgcc.a(gedf2.o)
                0x08001ea4                __gedf2
                0x08001ea4                __gtdf2
 .text          0x08001f6c       0xc4 c:/program files (x86)/atollic/truestudio for arm 8.0.0/armtools/bin/../lib/gcc/arm-atollic-eabi/6.3.1/armv6-m\libgcc.a(ledf2.o)
                0x08001f6c                __ledf2
                0x08001f6c                __ltdf2
 .text          0x08002030      0x62c c:/program files (x86)/atollic/truestudio for arm 8.0.0/armtools/bin/../lib/gcc/arm-atollic-eabi/6.3.1/armv6-m\libgcc.a(subdf3.o)
                0x08002030                __aeabi_dsub
 .text          0x0800265c       0x68 c:/program files (x86)/atollic/truestudio for arm 8.0.0/armtools/bin/../lib/gcc/arm-atollic-eabi/6.3.1/armv6-m\libgcc.a(fixdfsi.o)
                0x0800265c                __aeabi_d2iz
 .text          0x080026c4       0xa4 c:/program files (x86)/atollic/truestudio for arm 8.0.0/armtools/bin/../lib/gcc/arm-atollic-eabi/6.3.1/armv6-m\libgcc.a(extendsfdf2.o)
                0x080026c4                __aeabi_f2d
 .text          0x08002768      0x114 c:/program files (x86)/atollic/truestudio for arm 8.0.0/armtools/bin/../lib/gcc/arm-atollic-eabi/6.3.1/armv6-m\libgcc.a(truncdfsf2.o)
                0x08002768                __aeabi_d2f
 .text          0x0800287c       0x3c c:/program files (x86)/atollic/truestudio for arm 8.0.0/armtools/bin/../lib/gcc/arm-atollic-eabi/6.3.1/armv6-m\libgcc.a(_clzsi2.o)
                0x0800287c                __clzsi2
 *(.text*)
 .text.EXTI_Init
                0x080028b8       0xe0 Drivers\STM32F0xx_StdPeriph_Driver\src\stm32f0xx_exti.o
                0x080028b8                EXTI_Init
 .text.EXTI_GetITStatus
                0x08002998       0x40 Drivers\STM32F0xx_StdPeriph_Driver\src\stm32f0xx_exti.o
                0x08002998                EXTI_GetITStatus
 .text.EXTI_ClearITPendingBit
                0x080029d8       0x1c Drivers\STM32F0xx_StdPeriph_Driver\src\stm32f0xx_exti.o
                0x080029d8                EXTI_ClearITPendingBit
 .text.GPIO_Init
                0x080029f4      0x126 Drivers\STM32F0xx_StdPeriph_Driver\src\stm32f0xx_gpio.o
                0x080029f4                GPIO_Init
 .text.GPIO_ReadInputData
                0x08002b1a       0x16 Drivers\STM32F0xx_StdPeriph_Driver\src\stm32f0xx_gpio.o
                0x08002b1a                GPIO_ReadInputData
 .text.GPIO_ReadOutputData
                0x08002b30       0x16 Drivers\STM32F0xx_StdPeriph_Driver\src\stm32f0xx_gpio.o
                0x08002b30                GPIO_ReadOutputData
 .text.GPIO_SetBits
                0x08002b46       0x1e Drivers\STM32F0xx_StdPeriph_Driver\src\stm32f0xx_gpio.o
                0x08002b46                GPIO_SetBits
 .text.GPIO_ResetBits
                0x08002b64       0x1e Drivers\STM32F0xx_StdPeriph_Driver\src\stm32f0xx_gpio.o
                0x08002b64                GPIO_ResetBits
 .text.GPIO_WriteBit
                0x08002b82       0x3a Drivers\STM32F0xx_StdPeriph_Driver\src\stm32f0xx_gpio.o
                0x08002b82                GPIO_WriteBit
 .text.GPIO_Write
                0x08002bbc       0x1e Drivers\STM32F0xx_StdPeriph_Driver\src\stm32f0xx_gpio.o
                0x08002bbc                GPIO_Write
 *fill*         0x08002bda        0x2 
 .text.NVIC_Init
                0x08002bdc       0xac Drivers\STM32F0xx_StdPeriph_Driver\src\stm32f0xx_misc.o
                0x08002bdc                NVIC_Init
 .text.RCC_HCLKConfig
                0x08002c88       0x34 Drivers\STM32F0xx_StdPeriph_Driver\src\stm32f0xx_rcc.o
                0x08002c88                RCC_HCLKConfig
 .text.RCC_USARTCLKConfig
                0x08002cbc       0x68 Drivers\STM32F0xx_StdPeriph_Driver\src\stm32f0xx_rcc.o
                0x08002cbc                RCC_USARTCLKConfig
 .text.RCC_GetClocksFreq
                0x08002d24      0x2e0 Drivers\STM32F0xx_StdPeriph_Driver\src\stm32f0xx_rcc.o
                0x08002d24                RCC_GetClocksFreq
 .text.RCC_AHBPeriphClockCmd
                0x08003004       0x40 Drivers\STM32F0xx_StdPeriph_Driver\src\stm32f0xx_rcc.o
                0x08003004                RCC_AHBPeriphClockCmd
 .text.RCC_APB2PeriphClockCmd
                0x08003044       0x40 Drivers\STM32F0xx_StdPeriph_Driver\src\stm32f0xx_rcc.o
                0x08003044                RCC_APB2PeriphClockCmd
 .text.SYSCFG_EXTILineConfig
                0x08003084       0x94 Drivers\STM32F0xx_StdPeriph_Driver\src\stm32f0xx_syscfg.o
                0x08003084                SYSCFG_EXTILineConfig
 .text.TIM_TimeBaseInit
                0x08003118       0xf0 Drivers\STM32F0xx_StdPeriph_Driver\src\stm32f0xx_tim.o
                0x08003118                TIM_TimeBaseInit
 .text.TIM_TimeBaseStructInit
                0x08003208       0x30 Drivers\STM32F0xx_StdPeriph_Driver\src\stm32f0xx_tim.o
                0x08003208                TIM_TimeBaseStructInit
 .text.TIM_Cmd  0x08003238       0x40 Drivers\STM32F0xx_StdPeriph_Driver\src\stm32f0xx_tim.o
                0x08003238                TIM_Cmd
 .text.TIM_CtrlPWMOutputs
                0x08003278       0x4c Drivers\STM32F0xx_StdPeriph_Driver\src\stm32f0xx_tim.o
                0x08003278                TIM_CtrlPWMOutputs
 .text.TIM_OC1Init
                0x080032c4      0x1a4 Drivers\STM32F0xx_StdPeriph_Driver\src\stm32f0xx_tim.o
                0x080032c4                TIM_OC1Init
 .text.TIM_OC1PreloadConfig
                0x08003468       0x54 Drivers\STM32F0xx_StdPeriph_Driver\src\stm32f0xx_tim.o
                0x08003468                TIM_OC1PreloadConfig
 .text.TIM_ITConfig
                0x080034bc       0x52 Drivers\STM32F0xx_StdPeriph_Driver\src\stm32f0xx_tim.o
                0x080034bc                TIM_ITConfig
 .text.TIM_ClearITPendingBit
                0x0800350e       0x22 Drivers\STM32F0xx_StdPeriph_Driver\src\stm32f0xx_tim.o
                0x0800350e                TIM_ClearITPendingBit
 .text.USART_Init
                0x08003530      0x18c Drivers\STM32F0xx_StdPeriph_Driver\src\stm32f0xx_usart.o
                0x08003530                USART_Init
 .text.USART_Cmd
                0x080036bc       0x3a Drivers\STM32F0xx_StdPeriph_Driver\src\stm32f0xx_usart.o
                0x080036bc                USART_Cmd
 .text.USART_SendData
                0x080036f6       0x24 Drivers\STM32F0xx_StdPeriph_Driver\src\stm32f0xx_usart.o
                0x080036f6                USART_SendData
 .text.USART_ITConfig
                0x0800371a       0x84 Drivers\STM32F0xx_StdPeriph_Driver\src\stm32f0xx_usart.o
                0x0800371a                USART_ITConfig
 .text.coolant_get_state
                0x0800379e       0x18 src\grbl\coolant_control.o
                0x0800379e                coolant_get_state
 .text.coolant_stop
                0x080037b6        0xa src\grbl\coolant_control.o
                0x080037b6                coolant_stop
 .text.coolant_set_state
                0x080037c0       0x34 src\grbl\coolant_control.o
                0x080037c0                coolant_set_state
 .text.coolant_sync
                0x080037f4       0x30 src\grbl\coolant_control.o
                0x080037f4                coolant_sync
 .text.eeprom_get_char
                0x08003824       0x1c src\grbl\eeprom.o
                0x08003824                eeprom_get_char
 .text.eeprom_put_char
                0x08003840       0x28 src\grbl\eeprom.o
                0x08003840                eeprom_put_char
 .text.memcpy_to_eeprom_with_checksum
                0x08003868       0x84 src\grbl\eeprom.o
                0x08003868                memcpy_to_eeprom_with_checksum
 .text.memcpy_from_eeprom_with_checksum
                0x080038ec       0x9c src\grbl\eeprom.o
                0x080038ec                memcpy_from_eeprom_with_checksum
 .text.gc_init  0x08003988       0x38 src\grbl\gcode.o
                0x08003988                gc_init
 .text.gc_sync_position
                0x080039c0       0x20 src\grbl\gcode.o
                0x080039c0                gc_sync_position
 .text.gc_execute_line
                0x080039e0     0x1a98 src\grbl\gcode.o
                0x080039e0                gc_execute_line
 .text.jog_execute
                0x08005478       0x80 src\grbl\jog.o
                0x08005478                jog_execute
 .text.NVIC_DisableIRQ
                0x080054f8       0x30 src\grbl\limits.o
 .text.NVIC_ClearPendingIRQ
                0x08005528       0x34 src\grbl\limits.o
 .text.limits_init
                0x0800555c       0xcc src\grbl\limits.o
                0x0800555c                limits_init
 .text.limits_disable
                0x08005628       0x10 src\grbl\limits.o
                0x08005628                limits_disable
 .text.limits_get_state
                0x08005638       0xa0 src\grbl\limits.o
                0x08005638                limits_get_state
 .text.EXTI4_15_IRQHandler
                0x080056d8       0x7c src\grbl\limits.o
                0x080056d8                EXTI4_15_IRQHandler
 .text.limits_go_home
                0x08005754      0x5d0 src\grbl\limits.o
                0x08005754                limits_go_home
 .text.limits_soft_check
                0x08005d24       0x5c src\grbl\limits.o
                0x08005d24                limits_soft_check
 .text.mc_line  0x08005d80       0x98 src\grbl\motion_control.o
                0x08005d80                mc_line
 .text.mc_arc   0x08005e18      0x4d4 src\grbl\motion_control.o
                0x08005e18                mc_arc
 .text.mc_dwell
                0x080062ec       0x2c src\grbl\motion_control.o
                0x080062ec                mc_dwell
 .text.mc_homing_cycle
                0x08006318       0x48 src\grbl\motion_control.o
                0x08006318                mc_homing_cycle
 .text.mc_probe_cycle
                0x08006360      0x128 src\grbl\motion_control.o
                0x08006360                mc_probe_cycle
 .text.mc_reset
                0x08006488       0x70 src\grbl\motion_control.o
                0x08006488                mc_reset
 .text.read_float
                0x080064f8      0x1f4 src\grbl\nuts_bolts.o
                0x080064f8                read_float
 .text.delay_sec
                0x080066ec       0x84 src\grbl\nuts_bolts.o
                0x080066ec                delay_sec
 .text.delay_ms
                0x08006770       0x2a src\grbl\nuts_bolts.o
                0x08006770                delay_ms
 .text.hypot_f  0x0800679a       0x3a src\grbl\nuts_bolts.o
                0x0800679a                hypot_f
 .text.convert_delta_vector_to_unit_vector
                0x080067d4       0xe4 src\grbl\nuts_bolts.o
                0x080067d4                convert_delta_vector_to_unit_vector
 .text.limit_value_by_axis_maximum
                0x080068b8       0xbc src\grbl\nuts_bolts.o
                0x080068b8                limit_value_by_axis_maximum
 .text.plan_next_block_index
                0x08006974       0x30 src\grbl\planner.o
                0x08006974                plan_next_block_index
 .text.plan_prev_block_index
                0x080069a4       0x30 src\grbl\planner.o
 .text.planner_recalculate
                0x080069d4      0x278 src\grbl\planner.o
 .text.plan_reset
                0x08006c4c       0x20 src\grbl\planner.o
                0x08006c4c                plan_reset
 .text.plan_reset_buffer
                0x08006c6c       0x34 src\grbl\planner.o
                0x08006c6c                plan_reset_buffer
 .text.plan_discard_current_block
                0x08006ca0       0x54 src\grbl\planner.o
                0x08006ca0                plan_discard_current_block
 .text.plan_get_system_motion_block
                0x08006cf4       0x24 src\grbl\planner.o
                0x08006cf4                plan_get_system_motion_block
 .text.plan_get_current_block
                0x08006d18       0x38 src\grbl\planner.o
                0x08006d18                plan_get_current_block
 .text.plan_get_exec_block_exit_speed_sqr
                0x08006d50       0x50 src\grbl\planner.o
                0x08006d50                plan_get_exec_block_exit_speed_sqr
 .text.plan_check_full_buffer
                0x08006da0       0x24 src\grbl\planner.o
                0x08006da0                plan_check_full_buffer
 .text.plan_compute_profile_nominal_speed
                0x08006dc4       0xa8 src\grbl\planner.o
                0x08006dc4                plan_compute_profile_nominal_speed
 .text.plan_compute_profile_parameters
                0x08006e6c       0x60 src\grbl\planner.o
 .text.plan_update_velocity_profile_parameters
                0x08006ecc       0x8c src\grbl\planner.o
                0x08006ecc                plan_update_velocity_profile_parameters
 .text.plan_buffer_line
                0x08006f58      0x5c0 src\grbl\planner.o
                0x08006f58                plan_buffer_line
 .text.plan_sync_position
                0x08007518       0x74 src\grbl\planner.o
                0x08007518                plan_sync_position
 .text.plan_get_block_buffer_available
                0x0800758c       0x40 src\grbl\planner.o
                0x0800758c                plan_get_block_buffer_available
 .text.plan_cycle_reinitialize
                0x080075cc       0x24 src\grbl\planner.o
                0x080075cc                plan_cycle_reinitialize
 .text.printString
                0x080075f0       0x28 src\grbl\print.o
                0x080075f0                printString
 .text.print_uint8_base10
                0x08007618       0xc2 src\grbl\print.o
                0x08007618                print_uint8_base10
 *fill*         0x080076da        0x2 
 .text.printFloat
                0x080076dc      0x170 src\grbl\print.o
                0x080076dc                printFloat
 .text.printFloat_CoordValue
                0x0800784c       0x44 src\grbl\print.o
                0x0800784c                printFloat_CoordValue
 .text.printFloat_RateValue
                0x08007890       0x44 src\grbl\print.o
                0x08007890                printFloat_RateValue
 .text.probe_init
                0x080078d4       0x48 src\grbl\probe.o
                0x080078d4                probe_init
 .text.probe_configure_invert_mask
                0x0800791c       0x48 src\grbl\probe.o
                0x0800791c                probe_configure_invert_mask
 .text.probe_get_state
                0x08007964       0x30 src\grbl\probe.o
                0x08007964                probe_get_state
 .text.probe_state_monitor
                0x08007994       0x44 src\grbl\probe.o
                0x08007994                probe_state_monitor
 .text.protocol_main_loop
                0x080079d8      0x25c src\grbl\protocol.o
                0x080079d8                protocol_main_loop
 .text.protocol_buffer_synchronize
                0x08007c34       0x30 src\grbl\protocol.o
                0x08007c34                protocol_buffer_synchronize
 .text.protocol_auto_cycle_start
                0x08007c64       0x18 src\grbl\protocol.o
                0x08007c64                protocol_auto_cycle_start
 .text.protocol_execute_realtime
                0x08007c7c       0x20 src\grbl\protocol.o
                0x08007c7c                protocol_execute_realtime
 .text.protocol_exec_rt_system
                0x08007c9c      0x5fc src\grbl\protocol.o
                0x08007c9c                protocol_exec_rt_system
 .text.protocol_exec_rt_suspend
                0x08008298      0x2b4 src\grbl\protocol.o
 .text.report_util_setting_prefix
                0x0800854c       0x2a src\grbl\report.o
                0x0800854c                report_util_setting_prefix
 *fill*         0x08008576        0x2 
 .text.report_util_line_feed
                0x08008578       0x18 src\grbl\report.o
 .text.report_util_feedback_line_feed
                0x08008590       0x14 src\grbl\report.o
 .text.report_util_gcode_modes_G
                0x080085a4       0x18 src\grbl\report.o
 .text.report_util_gcode_modes_M
                0x080085bc       0x18 src\grbl\report.o
 .text.report_util_axis_values
                0x080085d4       0x56 src\grbl\report.o
 .text.report_util_uint8_setting
                0x0800862a       0x2e src\grbl\report.o
 .text.report_util_float_setting
                0x08008658       0x3a src\grbl\report.o
 *fill*         0x08008692        0x2 
 .text.report_status_message
                0x08008694       0x44 src\grbl\report.o
                0x08008694                report_status_message
 .text.report_alarm_message
                0x080086d8       0x38 src\grbl\report.o
                0x080086d8                report_alarm_message
 .text.report_feedback_message
                0x08008710       0xd4 src\grbl\report.o
                0x08008710                report_feedback_message
 .text.report_init_message
                0x080087e4       0x18 src\grbl\report.o
                0x080087e4                report_init_message
 .text.report_grbl_help
                0x080087fc       0x18 src\grbl\report.o
                0x080087fc                report_grbl_help
 .text.report_grbl_settings
                0x08008814      0x29c src\grbl\report.o
                0x08008814                report_grbl_settings
 .text.report_probe_parameters
                0x08008ab0       0x4c src\grbl\report.o
                0x08008ab0                report_probe_parameters
 .text.report_ngc_parameters
                0x08008afc       0xe4 src\grbl\report.o
                0x08008afc                report_ngc_parameters
 .text.report_gcode_modes
                0x08008be0      0x168 src\grbl\report.o
                0x08008be0                report_gcode_modes
 .text.report_startup_line
                0x08008d48       0x40 src\grbl\report.o
                0x08008d48                report_startup_line
 .text.report_execute_startup_message
                0x08008d88       0x34 src\grbl\report.o
                0x08008d88                report_execute_startup_message
 .text.report_build_info
                0x08008dbc       0x5c src\grbl\report.o
                0x08008dbc                report_build_info
 .text.report_realtime_status
                0x08008e18      0x4e8 src\grbl\report.o
                0x08008e18                report_realtime_status
 .text.serial_get_rx_buffer_available
                0x08009300       0x4c src\grbl\serial.o
                0x08009300                serial_get_rx_buffer_available
 .text.serial_init
                0x0800934c        0xa src\grbl\serial.o
                0x0800934c                serial_init
 *fill*         0x08009356        0x2 
 .text.serial_write
                0x08009358       0x44 src\grbl\serial.o
                0x08009358                serial_write
 .text.serial_read
                0x0800939c       0x64 src\grbl\serial.o
                0x0800939c                serial_read
 .text.USART1_IRQHandler
                0x08009400      0x17c src\grbl\serial.o
                0x08009400                USART1_IRQHandler
 .text.serial_reset_read_buffer
                0x0800957c       0x1c src\grbl\serial.o
                0x0800957c                serial_reset_read_buffer
 .text.settings_store_startup_line
                0x08009598       0x3e src\grbl\settings.o
                0x08009598                settings_store_startup_line
 *fill*         0x080095d6        0x2 
 .text.settings_store_build_info
                0x080095d8       0x20 src\grbl\settings.o
                0x080095d8                settings_store_build_info
 .text.settings_write_coord_data
                0x080095f8       0x3a src\grbl\settings.o
                0x080095f8                settings_write_coord_data
 *fill*         0x08009632        0x2 
 .text.write_global_settings
                0x08009634       0x24 src\grbl\settings.o
                0x08009634                write_global_settings
 .text.settings_restore
                0x08009658      0x1dc src\grbl\settings.o
                0x08009658                settings_restore
 .text.settings_read_startup_line
                0x08009834       0x58 src\grbl\settings.o
                0x08009834                settings_read_startup_line
 .text.settings_read_build_info
                0x0800988c       0x38 src\grbl\settings.o
                0x0800988c                settings_read_build_info
 .text.settings_read_coord_data
                0x080098c4       0x5a src\grbl\settings.o
                0x080098c4                settings_read_coord_data
 *fill*         0x0800991e        0x2 
 .text.read_global_settings
                0x08009920       0x40 src\grbl\settings.o
                0x08009920                read_global_settings
 .text.settings_store_global_setting
                0x08009960      0x3d0 src\grbl\settings.o
                0x08009960                settings_store_global_setting
 .text.settings_init
                0x08009d30       0x22 src\grbl\settings.o
                0x08009d30                settings_init
 *fill*         0x08009d52        0x2 
 .text.spindle_init
                0x08009d54      0x178 src\grbl\spindle_control.o
                0x08009d54                spindle_init
 .text.spindle_get_state
                0x08009ecc       0x38 src\grbl\spindle_control.o
                0x08009ecc                spindle_get_state
 .text.spindle_stop
                0x08009f04       0x18 src\grbl\spindle_control.o
                0x08009f04                spindle_stop
 .text.spindle_set_speed
                0x08009f1c       0x40 src\grbl\spindle_control.o
                0x08009f1c                spindle_set_speed
 .text.spindle_compute_pwm_value
                0x08009f5c       0xfc src\grbl\spindle_control.o
                0x08009f5c                spindle_compute_pwm_value
 .text.spindle_set_state
                0x0800a058       0x94 src\grbl\spindle_control.o
                0x0800a058                spindle_set_state
 .text.spindle_sync
                0x0800a0ec       0x38 src\grbl\spindle_control.o
                0x0800a0ec                spindle_sync
 .text.NVIC_EnableIRQ
                0x0800a124       0x2c src\grbl\stepper.o
 .text.NVIC_DisableIRQ
                0x0800a150       0x30 src\grbl\stepper.o
 .text.st_wake_up
                0x0800a180       0xa8 src\grbl\stepper.o
                0x0800a180                st_wake_up
 .text.st_go_idle
                0x0800a228       0x9c src\grbl\stepper.o
                0x0800a228                st_go_idle
 .text.TIM2_IRQHandler
                0x0800a2c4      0x46c src\grbl\stepper.o
                0x0800a2c4                TIM2_IRQHandler
 .text.TIM3_IRQHandler
                0x0800a730       0x70 src\grbl\stepper.o
                0x0800a730                TIM3_IRQHandler
 .text.st_generate_step_dir_invert_masks
                0x0800a7a0       0xa0 src\grbl\stepper.o
                0x0800a7a0                st_generate_step_dir_invert_masks
 .text.st_reset
                0x0800a840       0xe0 src\grbl\stepper.o
                0x0800a840                st_reset
 .text.stepper_init
                0x0800a920       0xec src\grbl\stepper.o
                0x0800a920                stepper_init
 .text.st_update_plan_block_parameters
                0x0800aa0c       0x48 src\grbl\stepper.o
                0x0800aa0c                st_update_plan_block_parameters
 .text.st_next_block_index
                0x0800aa54       0x2e src\grbl\stepper.o
 *fill*         0x0800aa82        0x2 
 .text.st_prep_buffer
                0x0800aa84      0xb6c src\grbl\stepper.o
                0x0800aa84                st_prep_buffer
 .text.st_get_realtime_rate
                0x0800b5f0       0x28 src\grbl\stepper.o
                0x0800b5f0                st_get_realtime_rate
 .text.TIM_Configuration
                0x0800b618       0xe4 src\grbl\stepper.o
                0x0800b618                TIM_Configuration
 .text.system_init
                0x0800b6fc       0xbc src\grbl\system.o
                0x0800b6fc                system_init
 .text.system_control_get_state
                0x0800b7b8       0x74 src\grbl\system.o
                0x0800b7b8                system_control_get_state
 .text.system_check_safety_door_ajar
                0x0800b82c        0xc src\grbl\system.o
                0x0800b82c                system_check_safety_door_ajar
 .text.system_execute_startup
                0x0800b838       0x80 src\grbl\system.o
                0x0800b838                system_execute_startup
 .text.system_execute_line
                0x0800b8b8      0x4dc src\grbl\system.o
                0x0800b8b8                system_execute_line
 .text.system_flag_wco_change
                0x0800bd94       0x18 src\grbl\system.o
                0x0800bd94                system_flag_wco_change
 .text.system_convert_axis_steps_to_mpos
                0x0800bdac       0xa0 src\grbl\system.o
                0x0800bdac                system_convert_axis_steps_to_mpos
 .text.system_convert_array_steps_to_mpos
                0x0800be4c       0x54 src\grbl\system.o
                0x0800be4c                system_convert_array_steps_to_mpos
 .text.system_convert_corexy_to_x_axis_steps
                0x0800bea0       0x24 src\grbl\system.o
                0x0800bea0                system_convert_corexy_to_x_axis_steps
 .text.system_convert_corexy_to_y_axis_steps
                0x0800bec4       0x22 src\grbl\system.o
                0x0800bec4                system_convert_corexy_to_y_axis_steps
 *fill*         0x0800bee6        0x2 
 .text.system_check_travel_limits
                0x0800bee8       0x7c src\grbl\system.o
                0x0800bee8                system_check_travel_limits
 .text.system_set_exec_state_flag
                0x0800bf64       0x30 src\grbl\system.o
                0x0800bf64                system_set_exec_state_flag
 .text.system_clear_exec_state_flag
                0x0800bf94       0x38 src\grbl\system.o
                0x0800bf94                system_clear_exec_state_flag
 .text.system_set_exec_alarm
                0x0800bfcc       0x30 src\grbl\system.o
                0x0800bfcc                system_set_exec_alarm
 .text.system_clear_exec_alarm
                0x0800bffc       0x18 src\grbl\system.o
                0x0800bffc                system_clear_exec_alarm
 .text.system_set_exec_motion_override_flag
                0x0800c014       0x30 src\grbl\system.o
                0x0800c014                system_set_exec_motion_override_flag
 .text.system_set_exec_accessory_override_flag
                0x0800c044       0x30 src\grbl\system.o
                0x0800c044                system_set_exec_accessory_override_flag
 .text.system_clear_exec_motion_overrides
                0x0800c074       0x18 src\grbl\system.o
                0x0800c074                system_clear_exec_motion_overrides
 .text.system_clear_exec_accessory_overrides
                0x0800c08c       0x18 src\grbl\system.o
                0x0800c08c                system_clear_exec_accessory_overrides
 .text.USART1_Configuration
                0x0800c0a4      0x14c src\main.o
                0x0800c0a4                USART1_Configuration
 .text.main     0x0800c1f0      0x100 src\main.o
                0x0800c1f0                main
 .text._delay_ms
                0x0800c2f0       0x50 src\main.o
                0x0800c2f0                _delay_ms
 .text.Reset_Handler
                0x0800c340       0x70 src\startup_stm32f051.o
                0x0800c340                Reset_Handler
 .text.Default_Handler
                0x0800c3b0        0x2 src\startup_stm32f051.o
                0x0800c3b0                TIM1_CC_IRQHandler
                0x0800c3b0                ADC1_COMP_IRQHandler
                0x0800c3b0                PVD_IRQHandler
                0x0800c3b0                I2C1_IRQHandler
                0x0800c3b0                SPI1_IRQHandler
                0x0800c3b0                TIM6_DAC_IRQHandler
                0x0800c3b0                EXTI2_3_IRQHandler
                0x0800c3b0                I2C2_IRQHandler
                0x0800c3b0                TIM17_IRQHandler
                0x0800c3b0                RTC_IRQHandler
                0x0800c3b0                TIM16_IRQHandler
                0x0800c3b0                RCC_IRQHandler
                0x0800c3b0                DMA1_Channel1_IRQHandler
                0x0800c3b0                Default_Handler
                0x0800c3b0                CEC_IRQHandler
                0x0800c3b0                TIM14_IRQHandler
                0x0800c3b0                DMA1_Channel4_5_IRQHandler
                0x0800c3b0                TIM15_IRQHandler
                0x0800c3b0                EXTI0_1_IRQHandler
                0x0800c3b0                SPI2_IRQHandler
                0x0800c3b0                TS_IRQHandler
                0x0800c3b0                WWDG_IRQHandler
                0x0800c3b0                DMA1_Channel2_3_IRQHandler
                0x0800c3b0                USART2_IRQHandler
                0x0800c3b0                FLASH_IRQHandler
                0x0800c3b0                TIM1_BRK_UP_TRG_COM_IRQHandler
 .text.NMI_Handler
                0x0800c3b2        0xa src\stm32f0xx_it.o
                0x0800c3b2                NMI_Handler
 .text.HardFault_Handler
                0x0800c3bc        0x6 src\stm32f0xx_it.o
                0x0800c3bc                HardFault_Handler
 .text.SVC_Handler
                0x0800c3c2        0xa src\stm32f0xx_it.o
                0x0800c3c2                SVC_Handler
 .text.PendSV_Handler
                0x0800c3cc        0xa src\stm32f0xx_it.o
                0x0800c3cc                PendSV_Handler
 .text.SysTick_Handler
                0x0800c3d6        0xa src\stm32f0xx_it.o
                0x0800c3d6                SysTick_Handler
 .text.SystemInit
                0x0800c3e0       0x8c src\system_stm32f0xx.o
                0x0800c3e0                SystemInit
 .text.SetSysClock
                0x0800c46c       0xe0 src\system_stm32f0xx.o
 .text.__libc_init_array
                0x0800c54c       0x48 c:/program files (x86)/atollic/truestudio for arm 8.0.0/armtools/bin/../lib/gcc/arm-atollic-eabi/6.3.1/../../../../arm-atollic-eabi/lib/armv6-m\libc_nano.a(lib_a-init.o)
                0x0800c54c                __libc_init_array
 .text.memcmp   0x0800c594       0x1e c:/program files (x86)/atollic/truestudio for arm 8.0.0/armtools/bin/../lib/gcc/arm-atollic-eabi/6.3.1/../../../../arm-atollic-eabi/lib/armv6-m\libc_nano.a(lib_a-memcmp.o)
                0x0800c594                memcmp
 .text.memcpy   0x0800c5b2       0x12 c:/program files (x86)/atollic/truestudio for arm 8.0.0/armtools/bin/../lib/gcc/arm-atollic-eabi/6.3.1/../../../../arm-atollic-eabi/lib/armv6-m\libc_nano.a(lib_a-memcpy-stub.o)
                0x0800c5b2                memcpy
 .text.memset   0x0800c5c4       0x10 c:/program files (x86)/atollic/truestudio for arm 8.0.0/armtools/bin/../lib/gcc/arm-atollic-eabi/6.3.1/../../../../arm-atollic-eabi/lib/armv6-m\libc_nano.a(lib_a-memset.o)
                0x0800c5c4                memset
 .text.lround   0x0800c5d4       0x9c c:/program files (x86)/atollic/truestudio for arm 8.0.0/armtools/bin/../lib/gcc/arm-atollic-eabi/6.3.1/../../../../arm-atollic-eabi/lib/armv6-m\libm.a(lib_a-s_lround.o)
                0x0800c5d4                lround
 .text.trunc    0x0800c670       0x60 c:/program files (x86)/atollic/truestudio for arm 8.0.0/armtools/bin/../lib/gcc/arm-atollic-eabi/6.3.1/../../../../arm-atollic-eabi/lib/armv6-m\libm.a(lib_a-s_trunc.o)
                0x0800c670                trunc
 .text.ceilf    0x0800c6d0       0x7c c:/program files (x86)/atollic/truestudio for arm 8.0.0/armtools/bin/../lib/gcc/arm-atollic-eabi/6.3.1/../../../../arm-atollic-eabi/lib/armv6-m\libm.a(lib_a-sf_ceil.o)
                0x0800c6d0                ceilf
 .text.cosf     0x0800c74c       0x6c c:/program files (x86)/atollic/truestudio for arm 8.0.0/armtools/bin/../lib/gcc/arm-atollic-eabi/6.3.1/../../../../arm-atollic-eabi/lib/armv6-m\libm.a(lib_a-sf_cos.o)
                0x0800c74c                cosf
 .text.floorf   0x0800c7b8       0x7c c:/program files (x86)/atollic/truestudio for arm 8.0.0/armtools/bin/../lib/gcc/arm-atollic-eabi/6.3.1/../../../../arm-atollic-eabi/lib/armv6-m\libm.a(lib_a-sf_floor.o)
                0x0800c7b8                floorf
 .text.roundf   0x0800c834       0x48 c:/program files (x86)/atollic/truestudio for arm 8.0.0/armtools/bin/../lib/gcc/arm-atollic-eabi/6.3.1/../../../../arm-atollic-eabi/lib/armv6-m\libm.a(lib_a-sf_round.o)
                0x0800c834                roundf
 .text.sinf     0x0800c87c       0x70 c:/program files (x86)/atollic/truestudio for arm 8.0.0/armtools/bin/../lib/gcc/arm-atollic-eabi/6.3.1/../../../../arm-atollic-eabi/lib/armv6-m\libm.a(lib_a-sf_sin.o)
                0x0800c87c                sinf
 .text.atan2f   0x0800c8ec        0x8 c:/program files (x86)/atollic/truestudio for arm 8.0.0/armtools/bin/../lib/gcc/arm-atollic-eabi/6.3.1/../../../../arm-atollic-eabi/lib/armv6-m\libm.a(lib_a-wf_atan2.o)
                0x0800c8ec                atan2f
 .text.sqrtf    0x0800c8f4       0xa0 c:/program files (x86)/atollic/truestudio for arm 8.0.0/armtools/bin/../lib/gcc/arm-atollic-eabi/6.3.1/../../../../arm-atollic-eabi/lib/armv6-m\libm.a(lib_a-wf_sqrt.o)
                0x0800c8f4                sqrtf
 .text.__ieee754_atan2f
                0x0800c994      0x110 c:/program files (x86)/atollic/truestudio for arm 8.0.0/armtools/bin/../lib/gcc/arm-atollic-eabi/6.3.1/../../../../arm-atollic-eabi/lib/armv6-m\libm.a(lib_a-ef_atan2.o)
                0x0800c994                __ieee754_atan2f
 .text.__ieee754_rem_pio2f
                0x0800caa4      0x2c0 c:/program files (x86)/atollic/truestudio for arm 8.0.0/armtools/bin/../lib/gcc/arm-atollic-eabi/6.3.1/../../../../arm-atollic-eabi/lib/armv6-m\libm.a(lib_a-ef_rem_pio2.o)
                0x0800caa4                __ieee754_rem_pio2f
 .text.__ieee754_sqrtf
                0x0800cd64       0xac c:/program files (x86)/atollic/truestudio for arm 8.0.0/armtools/bin/../lib/gcc/arm-atollic-eabi/6.3.1/../../../../arm-atollic-eabi/lib/armv6-m\libm.a(lib_a-ef_sqrt.o)
                0x0800cd64                __ieee754_sqrtf
 .text.__kernel_cosf
                0x0800ce10      0x12c c:/program files (x86)/atollic/truestudio for arm 8.0.0/armtools/bin/../lib/gcc/arm-atollic-eabi/6.3.1/../../../../arm-atollic-eabi/lib/armv6-m\libm.a(lib_a-kf_cos.o)
                0x0800ce10                __kernel_cosf
 .text.__kernel_rem_pio2f
                0x0800cf3c      0x58c c:/program files (x86)/atollic/truestudio for arm 8.0.0/armtools/bin/../lib/gcc/arm-atollic-eabi/6.3.1/../../../../arm-atollic-eabi/lib/armv6-m\libm.a(lib_a-kf_rem_pio2.o)
                0x0800cf3c                __kernel_rem_pio2f
 .text.__kernel_sinf
                0x0800d4c8       0xec c:/program files (x86)/atollic/truestudio for arm 8.0.0/armtools/bin/../lib/gcc/arm-atollic-eabi/6.3.1/../../../../arm-atollic-eabi/lib/armv6-m\libm.a(lib_a-kf_sin.o)
                0x0800d4c8                __kernel_sinf
 .text.matherr  0x0800d5b4        0x4 c:/program files (x86)/atollic/truestudio for arm 8.0.0/armtools/bin/../lib/gcc/arm-atollic-eabi/6.3.1/../../../../arm-atollic-eabi/lib/armv6-m\libm.a(lib_a-s_matherr.o)
                0x0800d5b4                matherr
 .text.atanf    0x0800d5b8      0x230 c:/program files (x86)/atollic/truestudio for arm 8.0.0/armtools/bin/../lib/gcc/arm-atollic-eabi/6.3.1/../../../../arm-atollic-eabi/lib/armv6-m\libm.a(lib_a-sf_atan.o)
                0x0800d5b8                atanf
 .text.fabsf    0x0800d7e8        0x6 c:/program files (x86)/atollic/truestudio for arm 8.0.0/armtools/bin/../lib/gcc/arm-atollic-eabi/6.3.1/../../../../arm-atollic-eabi/lib/armv6-m\libm.a(lib_a-sf_fabs.o)
                0x0800d7e8                fabsf
 *fill*         0x0800d7ee        0x2 
 .text.scalbnf  0x0800d7f0       0xa4 c:/program files (x86)/atollic/truestudio for arm 8.0.0/armtools/bin/../lib/gcc/arm-atollic-eabi/6.3.1/../../../../arm-atollic-eabi/lib/armv6-m\libm.a(lib_a-sf_scalbn.o)
                0x0800d7f0                scalbnf
 .text.copysignf
                0x0800d894        0xc c:/program files (x86)/atollic/truestudio for arm 8.0.0/armtools/bin/../lib/gcc/arm-atollic-eabi/6.3.1/../../../../arm-atollic-eabi/lib/armv6-m\libm.a(lib_a-sf_copysign.o)
                0x0800d894                copysignf
 .text.__errno  0x0800d8a0        0xc c:/program files (x86)/atollic/truestudio for arm 8.0.0/armtools/bin/../lib/gcc/arm-atollic-eabi/6.3.1/../../../../arm-atollic-eabi/lib/armv6-m\libc_nano.a(lib_a-errno.o)
                0x0800d8a0                __errno
 *(.glue_7)
 .glue_7        0x0800d8ac        0x0 linker stubs
 *(.glue_7t)
 .glue_7t       0x0800d8ac        0x0 linker stubs
 *(.eh_frame)
 .eh_frame      0x0800d8ac        0x0 c:/program files (x86)/atollic/truestudio for arm 8.0.0/armtools/bin/../lib/gcc/arm-atollic-eabi/6.3.1/armv6-m/crtbegin.o
 *(.init)
 .init          0x0800d8ac        0x4 c:/program files (x86)/atollic/truestudio for arm 8.0.0/armtools/bin/../lib/gcc/arm-atollic-eabi/6.3.1/armv6-m/crti.o
                0x0800d8ac                _init
 .init          0x0800d8b0        0x8 c:/program files (x86)/atollic/truestudio for arm 8.0.0/armtools/bin/../lib/gcc/arm-atollic-eabi/6.3.1/armv6-m/crtn.o
 *(.fini)
 .fini          0x0800d8b8        0x4 c:/program files (x86)/atollic/truestudio for arm 8.0.0/armtools/bin/../lib/gcc/arm-atollic-eabi/6.3.1/armv6-m/crti.o
                0x0800d8b8                _fini
 .fini          0x0800d8bc        0x8 c:/program files (x86)/atollic/truestudio for arm 8.0.0/armtools/bin/../lib/gcc/arm-atollic-eabi/6.3.1/armv6-m/crtn.o
                0x0800d8c4                . = ALIGN (0x4)
                0x0800d8c4                _etext = .

.vfp11_veneer   0x0800d8c4        0x0
 .vfp11_veneer  0x0800d8c4        0x0 linker stubs

.v4_bx          0x0800d8c4        0x0
 .v4_bx         0x0800d8c4        0x0 linker stubs

.iplt           0x0800d8c4        0x0
 .iplt          0x0800d8c4        0x0 c:/program files (x86)/atollic/truestudio for arm 8.0.0/armtools/bin/../lib/gcc/arm-atollic-eabi/6.3.1/armv6-m/crtbegin.o

.rodata         0x0800d8c4      0xb8c
                0x0800d8c4                . = ALIGN (0x4)
 *(.rodata)
 .rodata        0x0800d8c4      0x220 src\grbl\report.o
 .rodata        0x0800dae4       0x80 c:/program files (x86)/atollic/truestudio for arm 8.0.0/armtools/bin/../lib/gcc/arm-atollic-eabi/6.3.1/armv6-m\libgcc.a(divsf3.o)
 .rodata        0x0800db64       0x40 c:/program files (x86)/atollic/truestudio for arm 8.0.0/armtools/bin/../lib/gcc/arm-atollic-eabi/6.3.1/armv6-m\libgcc.a(mulsf3.o)
 .rodata        0x0800dba4       0x40 c:/program files (x86)/atollic/truestudio for arm 8.0.0/armtools/bin/../lib/gcc/arm-atollic-eabi/6.3.1/armv6-m\libgcc.a(divdf3.o)
 *(.rodata*)
 .rodata.gc_execute_line
                0x0800dbe4      0x260 src\grbl\gcode.o
 .rodata.report_feedback_message
                0x0800de44       0x30 src\grbl\report.o
 .rodata.USART1_IRQHandler
                0x0800de74       0x74 src\grbl\serial.o
 .rodata.settings_store_global_setting
                0x0800dee8       0x84 src\grbl\settings.o
 .rodata.step_pin_mask
                0x0800df6c        0x8 src\grbl\stepper.o
                0x0800df6c                step_pin_mask
 .rodata.direction_pin_mask
                0x0800df74        0x8 src\grbl\stepper.o
                0x0800df74                direction_pin_mask
 .rodata.limit_pin_mask
                0x0800df7c        0x8 src\grbl\stepper.o
                0x0800df7c                limit_pin_mask
 .rodata.A_AXIS_LUT
                0x0800df84       0x10 src\grbl\stepper.o
                0x0800df84                A_AXIS_LUT
 .rodata.system_execute_line
                0x0800df94       0xc4 src\grbl\system.o
 .rodata.sqrtf.str1.1
                0x0800e058        0x6 c:/program files (x86)/atollic/truestudio for arm 8.0.0/armtools/bin/../lib/gcc/arm-atollic-eabi/6.3.1/../../../../arm-atollic-eabi/lib/armv6-m\libm.a(lib_a-wf_sqrt.o)
 *fill*         0x0800e05e        0x2 
 .rodata.npio2_hw
                0x0800e060       0x80 c:/program files (x86)/atollic/truestudio for arm 8.0.0/armtools/bin/../lib/gcc/arm-atollic-eabi/6.3.1/../../../../arm-atollic-eabi/lib/armv6-m\libm.a(lib_a-ef_rem_pio2.o)
 .rodata.two_over_pi
                0x0800e0e0      0x318 c:/program files (x86)/atollic/truestudio for arm 8.0.0/armtools/bin/../lib/gcc/arm-atollic-eabi/6.3.1/../../../../arm-atollic-eabi/lib/armv6-m\libm.a(lib_a-ef_rem_pio2.o)
 .rodata.PIo2   0x0800e3f8       0x2c c:/program files (x86)/atollic/truestudio for arm 8.0.0/armtools/bin/../lib/gcc/arm-atollic-eabi/6.3.1/../../../../arm-atollic-eabi/lib/armv6-m\libm.a(lib_a-kf_rem_pio2.o)
 .rodata.init_jk
                0x0800e424        0xc c:/program files (x86)/atollic/truestudio for arm 8.0.0/armtools/bin/../lib/gcc/arm-atollic-eabi/6.3.1/../../../../arm-atollic-eabi/lib/armv6-m\libm.a(lib_a-kf_rem_pio2.o)
 .rodata.atanhi
                0x0800e430       0x10 c:/program files (x86)/atollic/truestudio for arm 8.0.0/armtools/bin/../lib/gcc/arm-atollic-eabi/6.3.1/../../../../arm-atollic-eabi/lib/armv6-m\libm.a(lib_a-sf_atan.o)
 .rodata.atanlo
                0x0800e440       0x10 c:/program files (x86)/atollic/truestudio for arm 8.0.0/armtools/bin/../lib/gcc/arm-atollic-eabi/6.3.1/../../../../arm-atollic-eabi/lib/armv6-m\libm.a(lib_a-sf_atan.o)
                0x0800e450                . = ALIGN (0x4)

.rel.dyn        0x0800e450        0x0
 .rel.iplt      0x0800e450        0x0 c:/program files (x86)/atollic/truestudio for arm 8.0.0/armtools/bin/../lib/gcc/arm-atollic-eabi/6.3.1/armv6-m/crtbegin.o

.ARM.extab
 *(.ARM.extab* .gnu.linkonce.armextab.*)

.ARM            0x0800e450        0x0
                0x0800e450                __exidx_start = .
 *(.ARM.exidx*)
                0x0800e450                __exidx_end = .

.preinit_array  0x0800e450        0x0
                0x0800e450                PROVIDE (__preinit_array_start, .)
 *(.preinit_array*)
                0x0800e450                PROVIDE (__preinit_array_end, .)

.init_array     0x0800e450        0x4
                0x0800e450                PROVIDE (__init_array_start, .)
 *(SORT(.init_array.*))
 *(.init_array*)
 .init_array    0x0800e450        0x4 c:/program files (x86)/atollic/truestudio for arm 8.0.0/armtools/bin/../lib/gcc/arm-atollic-eabi/6.3.1/armv6-m/crtbegin.o
                0x0800e454                PROVIDE (__init_array_end, .)

.fini_array     0x0800e454        0x4
                [!provide]                PROVIDE (__fini_array_start, .)
 *(SORT(.fini_array.*))
 *(.fini_array*)
 .fini_array    0x0800e454        0x4 c:/program files (x86)/atollic/truestudio for arm 8.0.0/armtools/bin/../lib/gcc/arm-atollic-eabi/6.3.1/armv6-m/crtbegin.o
                [!provide]                PROVIDE (__fini_array_end, .)
                0x0800e458                _sidata = LOADADDR (.data)

.data           0x20000000       0x7c load address 0x0800e458
                0x20000000                . = ALIGN (0x4)
                0x20000000                _sdata = .
 *(.data)
 *(.data*)
 .data.APBAHBPrescTable
                0x20000000       0x10 Drivers\STM32F0xx_StdPeriph_Driver\src\stm32f0xx_rcc.o
 .data.SystemCoreClock
                0x20000010        0x4 src\system_stm32f0xx.o
                0x20000010                SystemCoreClock
 .data._impure_ptr
                0x20000014        0x4 c:/program files (x86)/atollic/truestudio for arm 8.0.0/armtools/bin/../lib/gcc/arm-atollic-eabi/6.3.1/../../../../arm-atollic-eabi/lib/armv6-m\libc_nano.a(lib_a-impure.o)
                0x20000014                _impure_ptr
 .data.impure_data
                0x20000018       0x60 c:/program files (x86)/atollic/truestudio for arm 8.0.0/armtools/bin/../lib/gcc/arm-atollic-eabi/6.3.1/../../../../arm-atollic-eabi/lib/armv6-m\libc_nano.a(lib_a-impure.o)
 .data.__fdlib_version
                0x20000078        0x1 c:/program files (x86)/atollic/truestudio for arm 8.0.0/armtools/bin/../lib/gcc/arm-atollic-eabi/6.3.1/../../../../arm-atollic-eabi/lib/armv6-m\libm.a(lib_a-s_lib_ver.o)
                0x20000078                __fdlib_version
                0x2000007c                . = ALIGN (0x4)
 *fill*         0x20000079        0x3 
                0x2000007c                _edata = .

.igot.plt       0x2000007c        0x0 load address 0x0800e4d4
 .igot.plt      0x2000007c        0x0 c:/program files (x86)/atollic/truestudio for arm 8.0.0/armtools/bin/../lib/gcc/arm-atollic-eabi/6.3.1/armv6-m/crtbegin.o
                0x2000007c                . = ALIGN (0x4)

.bss            0x2000007c      0xb74 load address 0x0800e4d4
                0x2000007c                _sbss = .
                0x2000007c                __bss_start__ = _sbss
 *(.bss)
 .bss           0x2000007c       0x1c c:/program files (x86)/atollic/truestudio for arm 8.0.0/armtools/bin/../lib/gcc/arm-atollic-eabi/6.3.1/armv6-m/crtbegin.o
 *(.bss*)
 .bss.block_buffer
                0x20000098      0x380 src\grbl\planner.o
 .bss.block_buffer_tail
                0x20000418        0x1 src\grbl\planner.o
 .bss.block_buffer_head
                0x20000419        0x1 src\grbl\planner.o
 .bss.next_buffer_head
                0x2000041a        0x1 src\grbl\planner.o
 .bss.block_buffer_planned
                0x2000041b        0x1 src\grbl\planner.o
 .bss.pl        0x2000041c       0x24 src\grbl\planner.o
 .bss.line      0x20000440       0x50 src\grbl\protocol.o
 .bss.serial_rx_buffer_head
                0x20000490        0x1 src\grbl\serial.o
                0x20000490                serial_rx_buffer_head
 .bss.serial_rx_buffer_tail
                0x20000491        0x1 src\grbl\serial.o
                0x20000491                serial_rx_buffer_tail
 .bss.serial_tx_buffer_head
                0x20000492        0x1 src\grbl\serial.o
                0x20000492                serial_tx_buffer_head
 *fill*         0x20000493        0x1 
 .bss.pwm_gradient
                0x20000494        0x4 src\grbl\spindle_control.o
 .bss.lookUpIndex
                0x20000498        0x4 src\grbl\stepper.o
                0x20000498                lookUpIndex
 .bss.st_block_buffer
                0x2000049c       0x78 src\grbl\stepper.o
 .bss.segment_buffer
                0x20000514       0x30 src\grbl\stepper.o
 .bss.st        0x20000544       0x34 src\grbl\stepper.o
 .bss.segment_buffer_tail
                0x20000578        0x1 src\grbl\stepper.o
 .bss.segment_buffer_head
                0x20000579        0x1 src\grbl\stepper.o
 .bss.segment_next_head
                0x2000057a        0x1 src\grbl\stepper.o
 *fill*         0x2000057b        0x1 
 .bss.step_port_invert_mask
                0x2000057c        0x2 src\grbl\stepper.o
 .bss.dir_port_invert_mask
                0x2000057e        0x2 src\grbl\stepper.o
 .bss.busy      0x20000580        0x1 src\grbl\stepper.o
 *fill*         0x20000581        0x3 
 .bss.pl_block  0x20000584        0x4 src\grbl\stepper.o
 .bss.st_prep_block
                0x20000588        0x4 src\grbl\stepper.o
 .bss.prep      0x2000058c       0x38 src\grbl\stepper.o
 *(COMMON)
 COMMON         0x200005c4      0x400 src\grbl\eeprom.o
                0x200005c4                EE_Buffer
 COMMON         0x200009c4       0x94 src\grbl\gcode.o
                0x200009c4                gc_state
                0x20000a14                gc_block
 COMMON         0x20000a58        0x1 src\grbl\probe.o
                0x20000a58                probe_invert_mask
 *fill*         0x20000a59        0x3 
 COMMON         0x20000a5c       0xe8 src\grbl\serial.o
                0x20000a5c                serial_tx_buffer
                0x20000ac4                serial_rx_buffer
 COMMON         0x20000b44       0x6c src\grbl\settings.o
                0x20000b44                settings
 COMMON         0x20000bb0       0x3d src\main.o
                0x20000bb0                sys_rt_exec_motion_override
                0x20000bb4                sys
                0x20000bc8                sys_rt_exec_accessory_override
                0x20000bc9                sys_rt_exec_state
                0x20000bca                sys_probe_state
                0x20000bcc                sys_probe_position
                0x20000bdc                sys_position
                0x20000bec                sys_rt_exec_alarm
                0x20000bf0                . = ALIGN (0x4)
 *fill*         0x20000bed        0x3 
                0x20000bf0                _ebss = .
                0x20000bf0                __bss_end__ = _ebss

._user_heap_stack
                0x20000bf0       0x80 load address 0x0800e4d4
                0x20000bf0                . = ALIGN (0x4)
                0x20000bf0                PROVIDE (end, .)
                [!provide]                PROVIDE (_end, .)
                0x20000bf0                . = (. + _Min_Heap_Size)
                0x20000c70                . = (. + _Min_Stack_Size)
 *fill*         0x20000bf0       0x80 
                0x20000c70                . = ALIGN (0x4)

.memory_b1_text
 *(.mb1text)
 *(.mb1text*)
 *(.mb1rodata)
 *(.mb1rodata*)

/DISCARD/
 libc.a(*)
 libm.a(*)
 libgcc.a(*)

.ARM.attributes
                0x00000000       0x28
 *(.ARM.attributes)
 .ARM.attributes
                0x00000000       0x1e c:/program files (x86)/atollic/truestudio for arm 8.0.0/armtools/bin/../lib/gcc/arm-atollic-eabi/6.3.1/armv6-m/crti.o
 .ARM.attributes
                0x0000001e       0x2c c:/program files (x86)/atollic/truestudio for arm 8.0.0/armtools/bin/../lib/gcc/arm-atollic-eabi/6.3.1/armv6-m/crtbegin.o
 .ARM.attributes
                0x0000004a       0x31 Drivers\STM32F0xx_StdPeriph_Driver\src\stm32f0xx_exti.o
 .ARM.attributes
                0x0000007b       0x31 Drivers\STM32F0xx_StdPeriph_Driver\src\stm32f0xx_gpio.o
 .ARM.attributes
                0x000000ac       0x31 Drivers\STM32F0xx_StdPeriph_Driver\src\stm32f0xx_misc.o
 .ARM.attributes
                0x000000dd       0x31 Drivers\STM32F0xx_StdPeriph_Driver\src\stm32f0xx_rcc.o
 .ARM.attributes
                0x0000010e       0x31 Drivers\STM32F0xx_StdPeriph_Driver\src\stm32f0xx_syscfg.o
 .ARM.attributes
                0x0000013f       0x31 Drivers\STM32F0xx_StdPeriph_Driver\src\stm32f0xx_tim.o
 .ARM.attributes
                0x00000170       0x31 Drivers\STM32F0xx_StdPeriph_Driver\src\stm32f0xx_usart.o
 .ARM.attributes
                0x000001a1       0x31 src\grbl\coolant_control.o
 .ARM.attributes
                0x000001d2       0x31 src\grbl\eeprom.o
 .ARM.attributes
                0x00000203       0x31 src\grbl\gcode.o
 .ARM.attributes
                0x00000234       0x31 src\grbl\jog.o
 .ARM.attributes
                0x00000265       0x31 src\grbl\limits.o
 .ARM.attributes
                0x00000296       0x31 src\grbl\motion_control.o
 .ARM.attributes
                0x000002c7       0x31 src\grbl\nuts_bolts.o
 .ARM.attributes
                0x000002f8       0x31 src\grbl\planner.o
 .ARM.attributes
                0x00000329       0x31 src\grbl\print.o
 .ARM.attributes
                0x0000035a       0x31 src\grbl\probe.o
 .ARM.attributes
                0x0000038b       0x31 src\grbl\protocol.o
 .ARM.attributes
                0x000003bc       0x31 src\grbl\report.o
 .ARM.attributes
                0x000003ed       0x31 src\grbl\serial.o
 .ARM.attributes
                0x0000041e       0x31 src\grbl\settings.o
 .ARM.attributes
                0x0000044f       0x31 src\grbl\spindle_control.o
 .ARM.attributes
                0x00000480       0x31 src\grbl\stepper.o
 .ARM.attributes
                0x000004b1       0x31 src\grbl\system.o
 .ARM.attributes
                0x000004e2       0x31 src\main.o
 .ARM.attributes
                0x00000513       0x21 src\startup_stm32f051.o
 .ARM.attributes
                0x00000534       0x31 src\stm32f0xx_it.o
 .ARM.attributes
                0x00000565       0x31 src\system_stm32f0xx.o
 .ARM.attributes
                0x00000596       0x2c c:/program files (x86)/atollic/truestudio for arm 8.0.0/armtools/bin/../lib/gcc/arm-atollic-eabi/6.3.1/../../../../arm-atollic-eabi/lib/armv6-m\libc_nano.a(lib_a-init.o)
 .ARM.attributes
                0x000005c2       0x2c c:/program files (x86)/atollic/truestudio for arm 8.0.0/armtools/bin/../lib/gcc/arm-atollic-eabi/6.3.1/../../../../arm-atollic-eabi/lib/armv6-m\libc_nano.a(lib_a-memcmp.o)
 .ARM.attributes
                0x000005ee       0x2c c:/program files (x86)/atollic/truestudio for arm 8.0.0/armtools/bin/../lib/gcc/arm-atollic-eabi/6.3.1/../../../../arm-atollic-eabi/lib/armv6-m\libc_nano.a(lib_a-memcpy-stub.o)
 .ARM.attributes
                0x0000061a       0x2c c:/program files (x86)/atollic/truestudio for arm 8.0.0/armtools/bin/../lib/gcc/arm-atollic-eabi/6.3.1/../../../../arm-atollic-eabi/lib/armv6-m\libc_nano.a(lib_a-memset.o)
 .ARM.attributes
                0x00000646       0x2c c:/program files (x86)/atollic/truestudio for arm 8.0.0/armtools/bin/../lib/gcc/arm-atollic-eabi/6.3.1/../../../../arm-atollic-eabi/lib/armv6-m\libc_nano.a(lib_a-impure.o)
 .ARM.attributes
                0x00000672       0x2c c:/program files (x86)/atollic/truestudio for arm 8.0.0/armtools/bin/../lib/gcc/arm-atollic-eabi/6.3.1/../../../../arm-atollic-eabi/lib/armv6-m\libm.a(lib_a-s_lround.o)
 .ARM.attributes
                0x0000069e       0x2c c:/program files (x86)/atollic/truestudio for arm 8.0.0/armtools/bin/../lib/gcc/arm-atollic-eabi/6.3.1/../../../../arm-atollic-eabi/lib/armv6-m\libm.a(lib_a-s_trunc.o)
 .ARM.attributes
                0x000006ca       0x2c c:/program files (x86)/atollic/truestudio for arm 8.0.0/armtools/bin/../lib/gcc/arm-atollic-eabi/6.3.1/../../../../arm-atollic-eabi/lib/armv6-m\libm.a(lib_a-sf_ceil.o)
 .ARM.attributes
                0x000006f6       0x2c c:/program files (x86)/atollic/truestudio for arm 8.0.0/armtools/bin/../lib/gcc/arm-atollic-eabi/6.3.1/../../../../arm-atollic-eabi/lib/armv6-m\libm.a(lib_a-sf_cos.o)
 .ARM.attributes
                0x00000722       0x2c c:/program files (x86)/atollic/truestudio for arm 8.0.0/armtools/bin/../lib/gcc/arm-atollic-eabi/6.3.1/../../../../arm-atollic-eabi/lib/armv6-m\libm.a(lib_a-sf_floor.o)
 .ARM.attributes
                0x0000074e       0x2c c:/program files (x86)/atollic/truestudio for arm 8.0.0/armtools/bin/../lib/gcc/arm-atollic-eabi/6.3.1/../../../../arm-atollic-eabi/lib/armv6-m\libm.a(lib_a-sf_round.o)
 .ARM.attributes
                0x0000077a       0x2c c:/program files (x86)/atollic/truestudio for arm 8.0.0/armtools/bin/../lib/gcc/arm-atollic-eabi/6.3.1/../../../../arm-atollic-eabi/lib/armv6-m\libm.a(lib_a-sf_sin.o)
 .ARM.attributes
                0x000007a6       0x2c c:/program files (x86)/atollic/truestudio for arm 8.0.0/armtools/bin/../lib/gcc/arm-atollic-eabi/6.3.1/../../../../arm-atollic-eabi/lib/armv6-m\libm.a(lib_a-wf_atan2.o)
 .ARM.attributes
                0x000007d2       0x2c c:/program files (x86)/atollic/truestudio for arm 8.0.0/armtools/bin/../lib/gcc/arm-atollic-eabi/6.3.1/../../../../arm-atollic-eabi/lib/armv6-m\libm.a(lib_a-wf_sqrt.o)
 .ARM.attributes
                0x000007fe       0x2c c:/program files (x86)/atollic/truestudio for arm 8.0.0/armtools/bin/../lib/gcc/arm-atollic-eabi/6.3.1/../../../../arm-atollic-eabi/lib/armv6-m\libm.a(lib_a-ef_atan2.o)
 .ARM.attributes
                0x0000082a       0x2c c:/program files (x86)/atollic/truestudio for arm 8.0.0/armtools/bin/../lib/gcc/arm-atollic-eabi/6.3.1/../../../../arm-atollic-eabi/lib/armv6-m\libm.a(lib_a-ef_rem_pio2.o)
 .ARM.attributes
                0x00000856       0x2c c:/program files (x86)/atollic/truestudio for arm 8.0.0/armtools/bin/../lib/gcc/arm-atollic-eabi/6.3.1/../../../../arm-atollic-eabi/lib/armv6-m\libm.a(lib_a-ef_sqrt.o)
 .ARM.attributes
                0x00000882       0x2c c:/program files (x86)/atollic/truestudio for arm 8.0.0/armtools/bin/../lib/gcc/arm-atollic-eabi/6.3.1/../../../../arm-atollic-eabi/lib/armv6-m\libm.a(lib_a-kf_cos.o)
 .ARM.attributes
                0x000008ae       0x2c c:/program files (x86)/atollic/truestudio for arm 8.0.0/armtools/bin/../lib/gcc/arm-atollic-eabi/6.3.1/../../../../arm-atollic-eabi/lib/armv6-m\libm.a(lib_a-kf_rem_pio2.o)
 .ARM.attributes
                0x000008da       0x2c c:/program files (x86)/atollic/truestudio for arm 8.0.0/armtools/bin/../lib/gcc/arm-atollic-eabi/6.3.1/../../../../arm-atollic-eabi/lib/armv6-m\libm.a(lib_a-kf_sin.o)
 .ARM.attributes
                0x00000906       0x2c c:/program files (x86)/atollic/truestudio for arm 8.0.0/armtools/bin/../lib/gcc/arm-atollic-eabi/6.3.1/../../../../arm-atollic-eabi/lib/armv6-m\libm.a(lib_a-s_lib_ver.o)
 .ARM.attributes
                0x00000932       0x2c c:/program files (x86)/atollic/truestudio for arm 8.0.0/armtools/bin/../lib/gcc/arm-atollic-eabi/6.3.1/../../../../arm-atollic-eabi/lib/armv6-m\libm.a(lib_a-s_matherr.o)
 .ARM.attributes
                0x0000095e       0x2c c:/program files (x86)/atollic/truestudio for arm 8.0.0/armtools/bin/../lib/gcc/arm-atollic-eabi/6.3.1/../../../../arm-atollic-eabi/lib/armv6-m\libm.a(lib_a-sf_atan.o)
 .ARM.attributes
                0x0000098a       0x2c c:/program files (x86)/atollic/truestudio for arm 8.0.0/armtools/bin/../lib/gcc/arm-atollic-eabi/6.3.1/../../../../arm-atollic-eabi/lib/armv6-m\libm.a(lib_a-sf_fabs.o)
 .ARM.attributes
                0x000009b6       0x2c c:/program files (x86)/atollic/truestudio for arm 8.0.0/armtools/bin/../lib/gcc/arm-atollic-eabi/6.3.1/../../../../arm-atollic-eabi/lib/armv6-m\libm.a(lib_a-sf_scalbn.o)
 .ARM.attributes
                0x000009e2       0x2c c:/program files (x86)/atollic/truestudio for arm 8.0.0/armtools/bin/../lib/gcc/arm-atollic-eabi/6.3.1/../../../../arm-atollic-eabi/lib/armv6-m\libm.a(lib_a-sf_copysign.o)
 .ARM.attributes
                0x00000a0e       0x2c c:/program files (x86)/atollic/truestudio for arm 8.0.0/armtools/bin/../lib/gcc/arm-atollic-eabi/6.3.1/../../../../arm-atollic-eabi/lib/armv6-m\libc_nano.a(lib_a-errno.o)
 .ARM.attributes
                0x00000a3a       0x1e c:/program files (x86)/atollic/truestudio for arm 8.0.0/armtools/bin/../lib/gcc/arm-atollic-eabi/6.3.1/armv6-m\libgcc.a(_thumb1_case_uqi.o)
 .ARM.attributes
                0x00000a58       0x1e c:/program files (x86)/atollic/truestudio for arm 8.0.0/armtools/bin/../lib/gcc/arm-atollic-eabi/6.3.1/armv6-m\libgcc.a(_udivsi3.o)
 .ARM.attributes
                0x00000a76       0x1e c:/program files (x86)/atollic/truestudio for arm 8.0.0/armtools/bin/../lib/gcc/arm-atollic-eabi/6.3.1/armv6-m\libgcc.a(_dvmd_tls.o)
 .ARM.attributes
                0x00000a94       0x1e c:/program files (x86)/atollic/truestudio for arm 8.0.0/armtools/bin/../lib/gcc/arm-atollic-eabi/6.3.1/armv6-m\libgcc.a(_arm_cmpdf2.o)
 .ARM.attributes
                0x00000ab2       0x1e c:/program files (x86)/atollic/truestudio for arm 8.0.0/armtools/bin/../lib/gcc/arm-atollic-eabi/6.3.1/armv6-m\libgcc.a(_arm_cmpsf2.o)
 .ARM.attributes
                0x00000ad0       0x2c c:/program files (x86)/atollic/truestudio for arm 8.0.0/armtools/bin/../lib/gcc/arm-atollic-eabi/6.3.1/armv6-m\libgcc.a(_fixunssfsi.o)
 .ARM.attributes
                0x00000afc       0x2c c:/program files (x86)/atollic/truestudio for arm 8.0.0/armtools/bin/../lib/gcc/arm-atollic-eabi/6.3.1/armv6-m\libgcc.a(_fixunsdfsi.o)
 .ARM.attributes
                0x00000b28       0x2c c:/program files (x86)/atollic/truestudio for arm 8.0.0/armtools/bin/../lib/gcc/arm-atollic-eabi/6.3.1/armv6-m\libgcc.a(addsf3.o)
 .ARM.attributes
                0x00000b54       0x2c c:/program files (x86)/atollic/truestudio for arm 8.0.0/armtools/bin/../lib/gcc/arm-atollic-eabi/6.3.1/armv6-m\libgcc.a(divsf3.o)
 .ARM.attributes
                0x00000b80       0x2c c:/program files (x86)/atollic/truestudio for arm 8.0.0/armtools/bin/../lib/gcc/arm-atollic-eabi/6.3.1/armv6-m\libgcc.a(eqsf2.o)
 .ARM.attributes
                0x00000bac       0x2c c:/program files (x86)/atollic/truestudio for arm 8.0.0/armtools/bin/../lib/gcc/arm-atollic-eabi/6.3.1/armv6-m\libgcc.a(gesf2.o)
 .ARM.attributes
                0x00000bd8       0x2c c:/program files (x86)/atollic/truestudio for arm 8.0.0/armtools/bin/../lib/gcc/arm-atollic-eabi/6.3.1/armv6-m\libgcc.a(lesf2.o)
 .ARM.attributes
                0x00000c04       0x2c c:/program files (x86)/atollic/truestudio for arm 8.0.0/armtools/bin/../lib/gcc/arm-atollic-eabi/6.3.1/armv6-m\libgcc.a(mulsf3.o)
 .ARM.attributes
                0x00000c30       0x2c c:/program files (x86)/atollic/truestudio for arm 8.0.0/armtools/bin/../lib/gcc/arm-atollic-eabi/6.3.1/armv6-m\libgcc.a(subsf3.o)
 .ARM.attributes
                0x00000c5c       0x2c c:/program files (x86)/atollic/truestudio for arm 8.0.0/armtools/bin/../lib/gcc/arm-atollic-eabi/6.3.1/armv6-m\libgcc.a(unordsf2.o)
 .ARM.attributes
                0x00000c88       0x2c c:/program files (x86)/atollic/truestudio for arm 8.0.0/armtools/bin/../lib/gcc/arm-atollic-eabi/6.3.1/armv6-m\libgcc.a(fixsfsi.o)
 .ARM.attributes
                0x00000cb4       0x2c c:/program files (x86)/atollic/truestudio for arm 8.0.0/armtools/bin/../lib/gcc/arm-atollic-eabi/6.3.1/armv6-m\libgcc.a(floatsisf.o)
 .ARM.attributes
                0x00000ce0       0x2c c:/program files (x86)/atollic/truestudio for arm 8.0.0/armtools/bin/../lib/gcc/arm-atollic-eabi/6.3.1/armv6-m\libgcc.a(floatunsisf.o)
 .ARM.attributes
                0x00000d0c       0x2c c:/program files (x86)/atollic/truestudio for arm 8.0.0/armtools/bin/../lib/gcc/arm-atollic-eabi/6.3.1/armv6-m\libgcc.a(adddf3.o)
 .ARM.attributes
                0x00000d38       0x2c c:/program files (x86)/atollic/truestudio for arm 8.0.0/armtools/bin/../lib/gcc/arm-atollic-eabi/6.3.1/armv6-m\libgcc.a(divdf3.o)
 .ARM.attributes
                0x00000d64       0x2c c:/program files (x86)/atollic/truestudio for arm 8.0.0/armtools/bin/../lib/gcc/arm-atollic-eabi/6.3.1/armv6-m\libgcc.a(eqdf2.o)
 .ARM.attributes
                0x00000d90       0x2c c:/program files (x86)/atollic/truestudio for arm 8.0.0/armtools/bin/../lib/gcc/arm-atollic-eabi/6.3.1/armv6-m\libgcc.a(gedf2.o)
 .ARM.attributes
                0x00000dbc       0x2c c:/program files (x86)/atollic/truestudio for arm 8.0.0/armtools/bin/../lib/gcc/arm-atollic-eabi/6.3.1/armv6-m\libgcc.a(ledf2.o)
 .ARM.attributes
                0x00000de8       0x2c c:/program files (x86)/atollic/truestudio for arm 8.0.0/armtools/bin/../lib/gcc/arm-atollic-eabi/6.3.1/armv6-m\libgcc.a(subdf3.o)
 .ARM.attributes
                0x00000e14       0x2c c:/program files (x86)/atollic/truestudio for arm 8.0.0/armtools/bin/../lib/gcc/arm-atollic-eabi/6.3.1/armv6-m\libgcc.a(fixdfsi.o)
 .ARM.attributes
                0x00000e40       0x2c c:/program files (x86)/atollic/truestudio for arm 8.0.0/armtools/bin/../lib/gcc/arm-atollic-eabi/6.3.1/armv6-m\libgcc.a(extendsfdf2.o)
 .ARM.attributes
                0x00000e6c       0x2c c:/program files (x86)/atollic/truestudio for arm 8.0.0/armtools/bin/../lib/gcc/arm-atollic-eabi/6.3.1/armv6-m\libgcc.a(truncdfsf2.o)
 .ARM.attributes
                0x00000e98       0x1e c:/program files (x86)/atollic/truestudio for arm 8.0.0/armtools/bin/../lib/gcc/arm-atollic-eabi/6.3.1/armv6-m\libgcc.a(_clzsi2.o)
 .ARM.attributes
                0x00000eb6       0x1e c:/program files (x86)/atollic/truestudio for arm 8.0.0/armtools/bin/../lib/gcc/arm-atollic-eabi/6.3.1/armv6-m/crtn.o
OUTPUT(grbl.elf elf32-littlearm)

.debug_info     0x00000000    0x17c04
 .debug_info    0x00000000      0x330 Drivers\STM32F0xx_StdPeriph_Driver\src\stm32f0xx_exti.o
 .debug_info    0x00000330      0x5f6 Drivers\STM32F0xx_StdPeriph_Driver\src\stm32f0xx_gpio.o
 .debug_info    0x00000926      0x372 Drivers\STM32F0xx_StdPeriph_Driver\src\stm32f0xx_misc.o
 .debug_info    0x00000c98      0xa4d Drivers\STM32F0xx_StdPeriph_Driver\src\stm32f0xx_rcc.o
 .debug_info    0x000016e5      0x354 Drivers\STM32F0xx_StdPeriph_Driver\src\stm32f0xx_syscfg.o
 .debug_info    0x00001a39     0x1c82 Drivers\STM32F0xx_StdPeriph_Driver\src\stm32f0xx_tim.o
 .debug_info    0x000036bb      0xe6b Drivers\STM32F0xx_StdPeriph_Driver\src\stm32f0xx_usart.o
 .debug_info    0x00004526      0xd6a src\grbl\coolant_control.o
 .debug_info    0x00005290      0xe09 src\grbl\eeprom.o
 .debug_info    0x00006099      0xff9 src\grbl\gcode.o
 .debug_info    0x00007092      0xe0c src\grbl\jog.o
 .debug_info    0x00007e9e     0x1498 src\grbl\limits.o
 .debug_info    0x00009336      0xf98 src\grbl\motion_control.o
 .debug_info    0x0000a2ce      0xeee src\grbl\nuts_bolts.o
 .debug_info    0x0000b1bc     0x120d src\grbl\planner.o
 .debug_info    0x0000c3c9      0xeb8 src\grbl\print.o
 .debug_info    0x0000d281      0xf50 src\grbl\probe.o
 .debug_info    0x0000e1d1      0xee6 src\grbl\protocol.o
 .debug_info    0x0000f0b7     0x1073 src\grbl\report.o
 .debug_info    0x0001012a      0xfa3 src\grbl\serial.o
 .debug_info    0x000110cd      0xf36 src\grbl\settings.o
 .debug_info    0x00012003     0x12e7 src\grbl\spindle_control.o
 .debug_info    0x000132ea     0x1b94 src\grbl\stepper.o
 .debug_info    0x00014e7e     0x164b src\grbl\system.o
 .debug_info    0x000164c9     0x12eb src\main.o
 .debug_info    0x000177b4       0x5f src\startup_stm32f051.o
 .debug_info    0x00017813       0xe9 src\stm32f0xx_it.o
 .debug_info    0x000178fc      0x308 src\system_stm32f0xx.o

.debug_abbrev   0x00000000     0x3a77
 .debug_abbrev  0x00000000      0x1ab Drivers\STM32F0xx_StdPeriph_Driver\src\stm32f0xx_exti.o
 .debug_abbrev  0x000001ab      0x198 Drivers\STM32F0xx_StdPeriph_Driver\src\stm32f0xx_gpio.o
 .debug_abbrev  0x00000343      0x140 Drivers\STM32F0xx_StdPeriph_Driver\src\stm32f0xx_misc.o
 .debug_abbrev  0x00000483      0x201 Drivers\STM32F0xx_StdPeriph_Driver\src\stm32f0xx_rcc.o
 .debug_abbrev  0x00000684      0x15e Drivers\STM32F0xx_StdPeriph_Driver\src\stm32f0xx_syscfg.o
 .debug_abbrev  0x000007e2      0x189 Drivers\STM32F0xx_StdPeriph_Driver\src\stm32f0xx_tim.o
 .debug_abbrev  0x0000096b      0x171 Drivers\STM32F0xx_StdPeriph_Driver\src\stm32f0xx_usart.o
 .debug_abbrev  0x00000adc      0x212 src\grbl\coolant_control.o
 .debug_abbrev  0x00000cee      0x245 src\grbl\eeprom.o
 .debug_abbrev  0x00000f33      0x23b src\grbl\gcode.o
 .debug_abbrev  0x0000116e      0x1bf src\grbl\jog.o
 .debug_abbrev  0x0000132d      0x30b src\grbl\limits.o
 .debug_abbrev  0x00001638      0x24a src\grbl\motion_control.o
 .debug_abbrev  0x00001882      0x206 src\grbl\nuts_bolts.o
 .debug_abbrev  0x00001a88      0x33c src\grbl\planner.o
 .debug_abbrev  0x00001dc4      0x20b src\grbl\print.o
 .debug_abbrev  0x00001fcf      0x24c src\grbl\probe.o
 .debug_abbrev  0x0000221b      0x22f src\grbl\protocol.o
 .debug_abbrev  0x0000244a      0x2e9 src\grbl\report.o
 .debug_abbrev  0x00002733      0x2a3 src\grbl\serial.o
 .debug_abbrev  0x000029d6      0x285 src\grbl\settings.o
 .debug_abbrev  0x00002c5b      0x2af src\grbl\spindle_control.o
 .debug_abbrev  0x00002f0a      0x37a src\grbl\stepper.o
 .debug_abbrev  0x00003284      0x3a1 src\grbl\system.o
 .debug_abbrev  0x00003625      0x28a src\main.o
 .debug_abbrev  0x000038af       0x12 src\startup_stm32f051.o
 .debug_abbrev  0x000038c1       0x60 src\stm32f0xx_it.o
 .debug_abbrev  0x00003921      0x156 src\system_stm32f0xx.o

.debug_aranges  0x00000000      0xe98
 .debug_aranges
                0x00000000       0x58 Drivers\STM32F0xx_StdPeriph_Driver\src\stm32f0xx_exti.o
 .debug_aranges
                0x00000058       0x80 Drivers\STM32F0xx_StdPeriph_Driver\src\stm32f0xx_gpio.o
 .debug_aranges
                0x000000d8       0x30 Drivers\STM32F0xx_StdPeriph_Driver\src\stm32f0xx_misc.o
 .debug_aranges
                0x00000108      0x160 Drivers\STM32F0xx_StdPeriph_Driver\src\stm32f0xx_rcc.o
 .debug_aranges
                0x00000268       0x68 Drivers\STM32F0xx_StdPeriph_Driver\src\stm32f0xx_syscfg.o
 .debug_aranges
                0x000002d0      0x300 Drivers\STM32F0xx_StdPeriph_Driver\src\stm32f0xx_tim.o
 .debug_aranges
                0x000005d0      0x1a0 Drivers\STM32F0xx_StdPeriph_Driver\src\stm32f0xx_usart.o
 .debug_aranges
                0x00000770       0x40 src\grbl\coolant_control.o
 .debug_aranges
                0x000007b0       0x38 src\grbl\eeprom.o
 .debug_aranges
                0x000007e8       0x30 src\grbl\gcode.o
 .debug_aranges
                0x00000818       0x20 src\grbl\jog.o
 .debug_aranges
                0x00000838       0x58 src\grbl\limits.o
 .debug_aranges
                0x00000890       0x48 src\grbl\motion_control.o
 .debug_aranges
                0x000008d8       0x48 src\grbl\nuts_bolts.o
 .debug_aranges
                0x00000920       0xa8 src\grbl\planner.o
 .debug_aranges
                0x000009c8       0x58 src\grbl\print.o
 .debug_aranges
                0x00000a20       0x38 src\grbl\probe.o
 .debug_aranges
                0x00000a58       0x48 src\grbl\protocol.o
 .debug_aranges
                0x00000aa0       0xc8 src\grbl\report.o
 .debug_aranges
                0x00000b68       0x58 src\grbl\serial.o
 .debug_aranges
                0x00000bc0       0x70 src\grbl\settings.o
 .debug_aranges
                0x00000c30       0x50 src\grbl\spindle_control.o
 .debug_aranges
                0x00000c80       0x88 src\grbl\stepper.o
 .debug_aranges
                0x00000d08       0xc0 src\grbl\system.o
 .debug_aranges
                0x00000dc8       0x38 src\main.o
 .debug_aranges
                0x00000e00       0x28 src\startup_stm32f051.o
 .debug_aranges
                0x00000e28       0x40 src\stm32f0xx_it.o
 .debug_aranges
                0x00000e68       0x30 src\system_stm32f0xx.o

.debug_ranges   0x00000000      0xd48
 .debug_ranges  0x00000000       0x48 Drivers\STM32F0xx_StdPeriph_Driver\src\stm32f0xx_exti.o
 .debug_ranges  0x00000048       0x70 Drivers\STM32F0xx_StdPeriph_Driver\src\stm32f0xx_gpio.o
 .debug_ranges  0x000000b8       0x20 Drivers\STM32F0xx_StdPeriph_Driver\src\stm32f0xx_misc.o
 .debug_ranges  0x000000d8      0x150 Drivers\STM32F0xx_StdPeriph_Driver\src\stm32f0xx_rcc.o
 .debug_ranges  0x00000228       0x58 Drivers\STM32F0xx_StdPeriph_Driver\src\stm32f0xx_syscfg.o
 .debug_ranges  0x00000280      0x2f0 Drivers\STM32F0xx_StdPeriph_Driver\src\stm32f0xx_tim.o
 .debug_ranges  0x00000570      0x190 Drivers\STM32F0xx_StdPeriph_Driver\src\stm32f0xx_usart.o
 .debug_ranges  0x00000700       0x30 src\grbl\coolant_control.o
 .debug_ranges  0x00000730       0x28 src\grbl\eeprom.o
 .debug_ranges  0x00000758       0x40 src\grbl\gcode.o
 .debug_ranges  0x00000798       0x10 src\grbl\jog.o
 .debug_ranges  0x000007a8       0x48 src\grbl\limits.o
 .debug_ranges  0x000007f0       0x50 src\grbl\motion_control.o
 .debug_ranges  0x00000840       0x38 src\grbl\nuts_bolts.o
 .debug_ranges  0x00000878       0x98 src\grbl\planner.o
 .debug_ranges  0x00000910       0x48 src\grbl\print.o
 .debug_ranges  0x00000958       0x28 src\grbl\probe.o
 .debug_ranges  0x00000980       0x38 src\grbl\protocol.o
 .debug_ranges  0x000009b8       0xb8 src\grbl\report.o
 .debug_ranges  0x00000a70       0x48 src\grbl\serial.o
 .debug_ranges  0x00000ab8       0x60 src\grbl\settings.o
 .debug_ranges  0x00000b18       0x40 src\grbl\spindle_control.o
 .debug_ranges  0x00000b58       0xa8 src\grbl\stepper.o
 .debug_ranges  0x00000c00       0xb0 src\grbl\system.o
 .debug_ranges  0x00000cb0       0x28 src\main.o
 .debug_ranges  0x00000cd8       0x20 src\startup_stm32f051.o
 .debug_ranges  0x00000cf8       0x30 src\stm32f0xx_it.o
 .debug_ranges  0x00000d28       0x20 src\system_stm32f0xx.o

.debug_line     0x00000000     0x77ee
 .debug_line    0x00000000      0x283 Drivers\STM32F0xx_StdPeriph_Driver\src\stm32f0xx_exti.o
 .debug_line    0x00000283      0x321 Drivers\STM32F0xx_StdPeriph_Driver\src\stm32f0xx_gpio.o
 .debug_line    0x000005a4      0x237 Drivers\STM32F0xx_StdPeriph_Driver\src\stm32f0xx_misc.o
 .debug_line    0x000007db      0x57f Drivers\STM32F0xx_StdPeriph_Driver\src\stm32f0xx_rcc.o
 .debug_line    0x00000d5a      0x25d Drivers\STM32F0xx_StdPeriph_Driver\src\stm32f0xx_syscfg.o
 .debug_line    0x00000fb7      0xa90 Drivers\STM32F0xx_StdPeriph_Driver\src\stm32f0xx_tim.o
 .debug_line    0x00001a47      0x639 Drivers\STM32F0xx_StdPeriph_Driver\src\stm32f0xx_usart.o
 .debug_line    0x00002080      0x304 src\grbl\coolant_control.o
 .debug_line    0x00002384      0x339 src\grbl\eeprom.o
 .debug_line    0x000026bd      0x786 src\grbl\gcode.o
 .debug_line    0x00002e43      0x2bc src\grbl\jog.o
 .debug_line    0x000030ff      0x52d src\grbl\limits.o
 .debug_line    0x0000362c      0x3ff src\grbl\motion_control.o
 .debug_line    0x00003a2b      0x3b3 src\grbl\nuts_bolts.o
 .debug_line    0x00003dde      0x584 src\grbl\planner.o
 .debug_line    0x00004362      0x3b6 src\grbl\print.o
 .debug_line    0x00004718      0x340 src\grbl\probe.o
 .debug_line    0x00004a58      0x53c src\grbl\protocol.o
 .debug_line    0x00004f94      0x5de src\grbl\report.o
 .debug_line    0x00005572      0x394 src\grbl\serial.o
 .debug_line    0x00005906      0x467 src\grbl\settings.o
 .debug_line    0x00005d6d      0x3e2 src\grbl\spindle_control.o
 .debug_line    0x0000614f      0x6c4 src\grbl\stepper.o
 .debug_line    0x00006813      0x76b src\grbl\system.o
 .debug_line    0x00006f7e      0x43e src\main.o
 .debug_line    0x000073bc       0x8e src\startup_stm32f051.o
 .debug_line    0x0000744a      0x1b2 src\stm32f0xx_it.o
 .debug_line    0x000075fc      0x1f2 src\system_stm32f0xx.o

.debug_str      0x00000000     0x4481
 .debug_str     0x00000000      0x31f Drivers\STM32F0xx_StdPeriph_Driver\src\stm32f0xx_exti.o
                                0x376 (size before relaxing)
 .debug_str     0x0000031f      0x32e Drivers\STM32F0xx_StdPeriph_Driver\src\stm32f0xx_gpio.o
                                0x4d3 (size before relaxing)
 .debug_str     0x0000064d      0x16f Drivers\STM32F0xx_StdPeriph_Driver\src\stm32f0xx_misc.o
                                0x33d (size before relaxing)
 .debug_str     0x000007bc      0x5bd Drivers\STM32F0xx_StdPeriph_Driver\src\stm32f0xx_rcc.o
                                0x7d5 (size before relaxing)
 .debug_str     0x00000d79      0x1e5 Drivers\STM32F0xx_StdPeriph_Driver\src\stm32f0xx_syscfg.o
                                0x3bf (size before relaxing)
 .debug_str     0x00000f5e      0xbb9 Drivers\STM32F0xx_StdPeriph_Driver\src\stm32f0xx_tim.o
                                0xe25 (size before relaxing)
 .debug_str     0x00001b17      0x6e6 Drivers\STM32F0xx_StdPeriph_Driver\src\stm32f0xx_usart.o
                                0x9d3 (size before relaxing)
 .debug_str     0x000021fd      0x7ba src\grbl\coolant_control.o
                                0xa4f (size before relaxing)
 .debug_str     0x000029b7       0x9a src\grbl\eeprom.o
                                0xa8c (size before relaxing)
 .debug_str     0x00002a51      0x169 src\grbl\gcode.o
                                0xb64 (size before relaxing)
 .debug_str     0x00002bba       0x1e src\grbl\jog.o
                                0xa56 (size before relaxing)
 .debug_str     0x00002bd8      0x318 src\grbl\limits.o
                               0x103a (size before relaxing)
 .debug_str     0x00002ef0      0x11a src\grbl\motion_control.o
                                0xb73 (size before relaxing)
 .debug_str     0x0000300a       0xce src\grbl\nuts_bolts.o
                                0xafb (size before relaxing)
 .debug_str     0x000030d8      0x363 src\grbl\planner.o
                                0xdb6 (size before relaxing)
 .debug_str     0x0000343b       0xd2 src\grbl\print.o
                                0xaaa (size before relaxing)
 .debug_str     0x0000350d       0x71 src\grbl\probe.o
                                0xc14 (size before relaxing)
 .debug_str     0x0000357e      0x11a src\grbl\protocol.o
                                0xbb1 (size before relaxing)
 .debug_str     0x00003698      0x2ae src\grbl\report.o
                                0xc9f (size before relaxing)
 .debug_str     0x00003946      0x140 src\grbl\serial.o
                                0xb76 (size before relaxing)
 .debug_str     0x00003a86      0x133 src\grbl\settings.o
                                0xb40 (size before relaxing)
 .debug_str     0x00003bb9       0xc7 src\grbl\spindle_control.o
                                0xe22 (size before relaxing)
 .debug_str     0x00003c80      0x454 src\grbl\stepper.o
                               0x14d7 (size before relaxing)
 .debug_str     0x000040d4      0x289 src\grbl\system.o
                               0x11b5 (size before relaxing)
 .debug_str     0x0000435d       0x63 src\main.o
                                0xf00 (size before relaxing)
 .debug_str     0x000043c0       0x5f src\stm32f0xx_it.o
                                0x1d4 (size before relaxing)
 .debug_str     0x0000441f       0x62 src\system_stm32f0xx.o
                                0x2ab (size before relaxing)

.comment        0x00000000       0x7c
 .comment       0x00000000       0x7c Drivers\STM32F0xx_StdPeriph_Driver\src\stm32f0xx_exti.o
                                 0x7d (size before relaxing)
 .comment       0x0000007c       0x7d Drivers\STM32F0xx_StdPeriph_Driver\src\stm32f0xx_gpio.o
 .comment       0x0000007c       0x7d Drivers\STM32F0xx_StdPeriph_Driver\src\stm32f0xx_misc.o
 .comment       0x0000007c       0x7d Drivers\STM32F0xx_StdPeriph_Driver\src\stm32f0xx_rcc.o
 .comment       0x0000007c       0x7d Drivers\STM32F0xx_StdPeriph_Driver\src\stm32f0xx_syscfg.o
 .comment       0x0000007c       0x7d Drivers\STM32F0xx_StdPeriph_Driver\src\stm32f0xx_tim.o
 .comment       0x0000007c       0x7d Drivers\STM32F0xx_StdPeriph_Driver\src\stm32f0xx_usart.o
 .comment       0x0000007c       0x7d src\grbl\coolant_control.o
 .comment       0x0000007c       0x7d src\grbl\eeprom.o
 .comment       0x0000007c       0x7d src\grbl\gcode.o
 .comment       0x0000007c       0x7d src\grbl\jog.o
 .comment       0x0000007c       0x7d src\grbl\limits.o
 .comment       0x0000007c       0x7d src\grbl\motion_control.o
 .comment       0x0000007c       0x7d src\grbl\nuts_bolts.o
 .comment       0x0000007c       0x7d src\grbl\planner.o
 .comment       0x0000007c       0x7d src\grbl\print.o
 .comment       0x0000007c       0x7d src\grbl\probe.o
 .comment       0x0000007c       0x7d src\grbl\protocol.o
 .comment       0x0000007c       0x7d src\grbl\report.o
 .comment       0x0000007c       0x7d src\grbl\serial.o
 .comment       0x0000007c       0x7d src\grbl\settings.o
 .comment       0x0000007c       0x7d src\grbl\spindle_control.o
 .comment       0x0000007c       0x7d src\grbl\stepper.o
 .comment       0x0000007c       0x7d src\grbl\system.o
 .comment       0x0000007c       0x7d src\main.o
 .comment       0x0000007c       0x7d src\stm32f0xx_it.o
 .comment       0x0000007c       0x7d src\system_stm32f0xx.o

.debug_frame    0x00000000     0x3928
 .debug_frame   0x00000000      0x10c Drivers\STM32F0xx_StdPeriph_Driver\src\stm32f0xx_exti.o
 .debug_frame   0x0000010c      0x1b0 Drivers\STM32F0xx_StdPeriph_Driver\src\stm32f0xx_gpio.o
 .debug_frame   0x000002bc       0x70 Drivers\STM32F0xx_StdPeriph_Driver\src\stm32f0xx_misc.o
 .debug_frame   0x0000032c      0x524 Drivers\STM32F0xx_StdPeriph_Driver\src\stm32f0xx_rcc.o
 .debug_frame   0x00000850      0x150 Drivers\STM32F0xx_StdPeriph_Driver\src\stm32f0xx_syscfg.o
 .debug_frame   0x000009a0      0xbb0 Drivers\STM32F0xx_StdPeriph_Driver\src\stm32f0xx_tim.o
 .debug_frame   0x00001550      0x630 Drivers\STM32F0xx_StdPeriph_Driver\src\stm32f0xx_usart.o
 .debug_frame   0x00001b80       0xa8 src\grbl\coolant_control.o
 .debug_frame   0x00001c28       0x90 src\grbl\eeprom.o
 .debug_frame   0x00001cb8       0x6c src\grbl\gcode.o
 .debug_frame   0x00001d24       0x30 src\grbl\jog.o
 .debug_frame   0x00001d54      0x108 src\grbl\limits.o
 .debug_frame   0x00001e5c       0xd0 src\grbl\motion_control.o
 .debug_frame   0x00001f2c       0xd0 src\grbl\nuts_bolts.o
 .debug_frame   0x00001ffc      0x230 src\grbl\planner.o
 .debug_frame   0x0000222c      0x114 src\grbl\print.o
 .debug_frame   0x00002340       0x8c src\grbl\probe.o
 .debug_frame   0x000023cc       0xc4 src\grbl\protocol.o
 .debug_frame   0x00002490      0x2b4 src\grbl\report.o
 .debug_frame   0x00002744      0x108 src\grbl\serial.o
 .debug_frame   0x0000284c      0x168 src\grbl\settings.o
 .debug_frame   0x000029b4       0xec src\grbl\spindle_control.o
 .debug_frame   0x00002aa0      0x1c4 src\grbl\stepper.o
 .debug_frame   0x00002c64      0x29c src\grbl\system.o
 .debug_frame   0x00002f00       0x8c src\main.o
 .debug_frame   0x00002f8c       0x9c src\stm32f0xx_it.o
 .debug_frame   0x00003028       0x6c src\system_stm32f0xx.o
 .debug_frame   0x00003094       0x2c c:/program files (x86)/atollic/truestudio for arm 8.0.0/armtools/bin/../lib/gcc/arm-atollic-eabi/6.3.1/../../../../arm-atollic-eabi/lib/armv6-m\libc_nano.a(lib_a-init.o)
 .debug_frame   0x000030c0       0x2c c:/program files (x86)/atollic/truestudio for arm 8.0.0/armtools/bin/../lib/gcc/arm-atollic-eabi/6.3.1/../../../../arm-atollic-eabi/lib/armv6-m\libc_nano.a(lib_a-memcmp.o)
 .debug_frame   0x000030ec       0x28 c:/program files (x86)/atollic/truestudio for arm 8.0.0/armtools/bin/../lib/gcc/arm-atollic-eabi/6.3.1/../../../../arm-atollic-eabi/lib/armv6-m\libc_nano.a(lib_a-memcpy-stub.o)
 .debug_frame   0x00003114       0x20 c:/program files (x86)/atollic/truestudio for arm 8.0.0/armtools/bin/../lib/gcc/arm-atollic-eabi/6.3.1/../../../../arm-atollic-eabi/lib/armv6-m\libc_nano.a(lib_a-memset.o)
 .debug_frame   0x00003134       0x34 c:/program files (x86)/atollic/truestudio for arm 8.0.0/armtools/bin/../lib/gcc/arm-atollic-eabi/6.3.1/../../../../arm-atollic-eabi/lib/armv6-m\libm.a(lib_a-s_lround.o)
 .debug_frame   0x00003168       0x2c c:/program files (x86)/atollic/truestudio for arm 8.0.0/armtools/bin/../lib/gcc/arm-atollic-eabi/6.3.1/../../../../arm-atollic-eabi/lib/armv6-m\libm.a(lib_a-s_trunc.o)
 .debug_frame   0x00003194       0x2c c:/program files (x86)/atollic/truestudio for arm 8.0.0/armtools/bin/../lib/gcc/arm-atollic-eabi/6.3.1/../../../../arm-atollic-eabi/lib/armv6-m\libm.a(lib_a-sf_ceil.o)
 .debug_frame   0x000031c0       0x2c c:/program files (x86)/atollic/truestudio for arm 8.0.0/armtools/bin/../lib/gcc/arm-atollic-eabi/6.3.1/../../../../arm-atollic-eabi/lib/armv6-m\libm.a(lib_a-sf_cos.o)
 .debug_frame   0x000031ec       0x2c c:/program files (x86)/atollic/truestudio for arm 8.0.0/armtools/bin/../lib/gcc/arm-atollic-eabi/6.3.1/../../../../arm-atollic-eabi/lib/armv6-m\libm.a(lib_a-sf_floor.o)
 .debug_frame   0x00003218       0x28 c:/program files (x86)/atollic/truestudio for arm 8.0.0/armtools/bin/../lib/gcc/arm-atollic-eabi/6.3.1/../../../../arm-atollic-eabi/lib/armv6-m\libm.a(lib_a-sf_round.o)
 .debug_frame   0x00003240       0x2c c:/program files (x86)/atollic/truestudio for arm 8.0.0/armtools/bin/../lib/gcc/arm-atollic-eabi/6.3.1/../../../../arm-atollic-eabi/lib/armv6-m\libm.a(lib_a-sf_sin.o)
 .debug_frame   0x0000326c       0x28 c:/program files (x86)/atollic/truestudio for arm 8.0.0/armtools/bin/../lib/gcc/arm-atollic-eabi/6.3.1/../../../../arm-atollic-eabi/lib/armv6-m\libm.a(lib_a-wf_atan2.o)
 .debug_frame   0x00003294       0x30 c:/program files (x86)/atollic/truestudio for arm 8.0.0/armtools/bin/../lib/gcc/arm-atollic-eabi/6.3.1/../../../../arm-atollic-eabi/lib/armv6-m\libm.a(lib_a-wf_sqrt.o)
 .debug_frame   0x000032c4       0x34 c:/program files (x86)/atollic/truestudio for arm 8.0.0/armtools/bin/../lib/gcc/arm-atollic-eabi/6.3.1/../../../../arm-atollic-eabi/lib/armv6-m\libm.a(lib_a-ef_atan2.o)
 .debug_frame   0x000032f8       0x30 c:/program files (x86)/atollic/truestudio for arm 8.0.0/armtools/bin/../lib/gcc/arm-atollic-eabi/6.3.1/../../../../arm-atollic-eabi/lib/armv6-m\libm.a(lib_a-ef_rem_pio2.o)
 .debug_frame   0x00003328       0x2c c:/program files (x86)/atollic/truestudio for arm 8.0.0/armtools/bin/../lib/gcc/arm-atollic-eabi/6.3.1/../../../../arm-atollic-eabi/lib/armv6-m\libm.a(lib_a-ef_sqrt.o)
 .debug_frame   0x00003354       0x34 c:/program files (x86)/atollic/truestudio for arm 8.0.0/armtools/bin/../lib/gcc/arm-atollic-eabi/6.3.1/../../../../arm-atollic-eabi/lib/armv6-m\libm.a(lib_a-kf_cos.o)
 .debug_frame   0x00003388       0x34 c:/program files (x86)/atollic/truestudio for arm 8.0.0/armtools/bin/../lib/gcc/arm-atollic-eabi/6.3.1/../../../../arm-atollic-eabi/lib/armv6-m\libm.a(lib_a-kf_rem_pio2.o)
 .debug_frame   0x000033bc       0x34 c:/program files (x86)/atollic/truestudio for arm 8.0.0/armtools/bin/../lib/gcc/arm-atollic-eabi/6.3.1/../../../../arm-atollic-eabi/lib/armv6-m\libm.a(lib_a-kf_sin.o)
 .debug_frame   0x000033f0       0x20 c:/program files (x86)/atollic/truestudio for arm 8.0.0/armtools/bin/../lib/gcc/arm-atollic-eabi/6.3.1/../../../../arm-atollic-eabi/lib/armv6-m\libm.a(lib_a-s_matherr.o)
 .debug_frame   0x00003410       0x34 c:/program files (x86)/atollic/truestudio for arm 8.0.0/armtools/bin/../lib/gcc/arm-atollic-eabi/6.3.1/../../../../arm-atollic-eabi/lib/armv6-m\libm.a(lib_a-sf_atan.o)
 .debug_frame   0x00003444       0x20 c:/program files (x86)/atollic/truestudio for arm 8.0.0/armtools/bin/../lib/gcc/arm-atollic-eabi/6.3.1/../../../../arm-atollic-eabi/lib/armv6-m\libm.a(lib_a-sf_fabs.o)
 .debug_frame   0x00003464       0x2c c:/program files (x86)/atollic/truestudio for arm 8.0.0/armtools/bin/../lib/gcc/arm-atollic-eabi/6.3.1/../../../../arm-atollic-eabi/lib/armv6-m\libm.a(lib_a-sf_scalbn.o)
 .debug_frame   0x00003490       0x20 c:/program files (x86)/atollic/truestudio for arm 8.0.0/armtools/bin/../lib/gcc/arm-atollic-eabi/6.3.1/../../../../arm-atollic-eabi/lib/armv6-m\libm.a(lib_a-sf_copysign.o)
 .debug_frame   0x000034b0       0x20 c:/program files (x86)/atollic/truestudio for arm 8.0.0/armtools/bin/../lib/gcc/arm-atollic-eabi/6.3.1/../../../../arm-atollic-eabi/lib/armv6-m\libc_nano.a(lib_a-errno.o)
 .debug_frame   0x000034d0       0x20 c:/program files (x86)/atollic/truestudio for arm 8.0.0/armtools/bin/../lib/gcc/arm-atollic-eabi/6.3.1/armv6-m\libgcc.a(_udivsi3.o)
 .debug_frame   0x000034f0       0x28 c:/program files (x86)/atollic/truestudio for arm 8.0.0/armtools/bin/../lib/gcc/arm-atollic-eabi/6.3.1/armv6-m\libgcc.a(_fixunssfsi.o)
 .debug_frame   0x00003518       0x2c c:/program files (x86)/atollic/truestudio for arm 8.0.0/armtools/bin/../lib/gcc/arm-atollic-eabi/6.3.1/armv6-m\libgcc.a(_fixunsdfsi.o)
 .debug_frame   0x00003544       0x34 c:/program files (x86)/atollic/truestudio for arm 8.0.0/armtools/bin/../lib/gcc/arm-atollic-eabi/6.3.1/armv6-m\libgcc.a(addsf3.o)
 .debug_frame   0x00003578       0x3c c:/program files (x86)/atollic/truestudio for arm 8.0.0/armtools/bin/../lib/gcc/arm-atollic-eabi/6.3.1/armv6-m\libgcc.a(divsf3.o)
 .debug_frame   0x000035b4       0x2c c:/program files (x86)/atollic/truestudio for arm 8.0.0/armtools/bin/../lib/gcc/arm-atollic-eabi/6.3.1/armv6-m\libgcc.a(eqsf2.o)
 .debug_frame   0x000035e0       0x30 c:/program files (x86)/atollic/truestudio for arm 8.0.0/armtools/bin/../lib/gcc/arm-atollic-eabi/6.3.1/armv6-m\libgcc.a(gesf2.o)
 .debug_frame   0x00003610       0x30 c:/program files (x86)/atollic/truestudio for arm 8.0.0/armtools/bin/../lib/gcc/arm-atollic-eabi/6.3.1/armv6-m\libgcc.a(lesf2.o)
 .debug_frame   0x00003640       0x3c c:/program files (x86)/atollic/truestudio for arm 8.0.0/armtools/bin/../lib/gcc/arm-atollic-eabi/6.3.1/armv6-m\libgcc.a(mulsf3.o)
 .debug_frame   0x0000367c       0x38 c:/program files (x86)/atollic/truestudio for arm 8.0.0/armtools/bin/../lib/gcc/arm-atollic-eabi/6.3.1/armv6-m\libgcc.a(subsf3.o)
 .debug_frame   0x000036b4       0x20 c:/program files (x86)/atollic/truestudio for arm 8.0.0/armtools/bin/../lib/gcc/arm-atollic-eabi/6.3.1/armv6-m\libgcc.a(unordsf2.o)
 .debug_frame   0x000036d4       0x20 c:/program files (x86)/atollic/truestudio for arm 8.0.0/armtools/bin/../lib/gcc/arm-atollic-eabi/6.3.1/armv6-m\libgcc.a(fixsfsi.o)
 .debug_frame   0x000036f4       0x2c c:/program files (x86)/atollic/truestudio for arm 8.0.0/armtools/bin/../lib/gcc/arm-atollic-eabi/6.3.1/armv6-m\libgcc.a(floatsisf.o)
 .debug_frame   0x00003720       0x28 c:/program files (x86)/atollic/truestudio for arm 8.0.0/armtools/bin/../lib/gcc/arm-atollic-eabi/6.3.1/armv6-m\libgcc.a(floatunsisf.o)
 .debug_frame   0x00003748       0x3c c:/program files (x86)/atollic/truestudio for arm 8.0.0/armtools/bin/../lib/gcc/arm-atollic-eabi/6.3.1/armv6-m\libgcc.a(adddf3.o)
 .debug_frame   0x00003784       0x3c c:/program files (x86)/atollic/truestudio for arm 8.0.0/armtools/bin/../lib/gcc/arm-atollic-eabi/6.3.1/armv6-m\libgcc.a(divdf3.o)
 .debug_frame   0x000037c0       0x38 c:/program files (x86)/atollic/truestudio for arm 8.0.0/armtools/bin/../lib/gcc/arm-atollic-eabi/6.3.1/armv6-m\libgcc.a(eqdf2.o)
 .debug_frame   0x000037f8       0x38 c:/program files (x86)/atollic/truestudio for arm 8.0.0/armtools/bin/../lib/gcc/arm-atollic-eabi/6.3.1/armv6-m\libgcc.a(gedf2.o)
 .debug_frame   0x00003830       0x38 c:/program files (x86)/atollic/truestudio for arm 8.0.0/armtools/bin/../lib/gcc/arm-atollic-eabi/6.3.1/armv6-m\libgcc.a(ledf2.o)
 .debug_frame   0x00003868       0x38 c:/program files (x86)/atollic/truestudio for arm 8.0.0/armtools/bin/../lib/gcc/arm-atollic-eabi/6.3.1/armv6-m\libgcc.a(subdf3.o)
 .debug_frame   0x000038a0       0x2c c:/program files (x86)/atollic/truestudio for arm 8.0.0/armtools/bin/../lib/gcc/arm-atollic-eabi/6.3.1/armv6-m\libgcc.a(fixdfsi.o)
 .debug_frame   0x000038cc       0x2c c:/program files (x86)/atollic/truestudio for arm 8.0.0/armtools/bin/../lib/gcc/arm-atollic-eabi/6.3.1/armv6-m\libgcc.a(extendsfdf2.o)
 .debug_frame   0x000038f8       0x30 c:/program files (x86)/atollic/truestudio for arm 8.0.0/armtools/bin/../lib/gcc/arm-atollic-eabi/6.3.1/armv6-m\libgcc.a(truncdfsf2.o)

Cross Reference Table

Symbol                                            File
ADC1_COMP_IRQHandler                              src\startup_stm32f051.o
ADC_AnalogWatchdogCmd                             Drivers\STM32F0xx_StdPeriph_Driver\src\stm32f0xx_adc.o
ADC_AnalogWatchdogSingleChannelCmd                Drivers\STM32F0xx_StdPeriph_Driver\src\stm32f0xx_adc.o
ADC_AnalogWatchdogSingleChannelConfig             Drivers\STM32F0xx_StdPeriph_Driver\src\stm32f0xx_adc.o
ADC_AnalogWatchdogThresholdsConfig                Drivers\STM32F0xx_StdPeriph_Driver\src\stm32f0xx_adc.o
ADC_AutoPowerOffCmd                               Drivers\STM32F0xx_StdPeriph_Driver\src\stm32f0xx_adc.o
ADC_ChannelConfig                                 Drivers\STM32F0xx_StdPeriph_Driver\src\stm32f0xx_adc.o
ADC_ClearFlag                                     Drivers\STM32F0xx_StdPeriph_Driver\src\stm32f0xx_adc.o
ADC_ClearITPendingBit                             Drivers\STM32F0xx_StdPeriph_Driver\src\stm32f0xx_adc.o
ADC_ClockModeConfig                               Drivers\STM32F0xx_StdPeriph_Driver\src\stm32f0xx_adc.o
ADC_Cmd                                           Drivers\STM32F0xx_StdPeriph_Driver\src\stm32f0xx_adc.o
ADC_ContinuousModeCmd                             Drivers\STM32F0xx_StdPeriph_Driver\src\stm32f0xx_adc.o
ADC_DMACmd                                        Drivers\STM32F0xx_StdPeriph_Driver\src\stm32f0xx_adc.o
ADC_DMARequestModeConfig                          Drivers\STM32F0xx_StdPeriph_Driver\src\stm32f0xx_adc.o
ADC_DeInit                                        Drivers\STM32F0xx_StdPeriph_Driver\src\stm32f0xx_adc.o
ADC_DiscModeCmd                                   Drivers\STM32F0xx_StdPeriph_Driver\src\stm32f0xx_adc.o
ADC_GetCalibrationFactor                          Drivers\STM32F0xx_StdPeriph_Driver\src\stm32f0xx_adc.o
ADC_GetConversionValue                            Drivers\STM32F0xx_StdPeriph_Driver\src\stm32f0xx_adc.o
ADC_GetFlagStatus                                 Drivers\STM32F0xx_StdPeriph_Driver\src\stm32f0xx_adc.o
ADC_GetITStatus                                   Drivers\STM32F0xx_StdPeriph_Driver\src\stm32f0xx_adc.o
ADC_ITConfig                                      Drivers\STM32F0xx_StdPeriph_Driver\src\stm32f0xx_adc.o
ADC_Init                                          Drivers\STM32F0xx_StdPeriph_Driver\src\stm32f0xx_adc.o
ADC_JitterCmd                                     Drivers\STM32F0xx_StdPeriph_Driver\src\stm32f0xx_adc.o
ADC_OverrunModeCmd                                Drivers\STM32F0xx_StdPeriph_Driver\src\stm32f0xx_adc.o
ADC_StartOfConversion                             Drivers\STM32F0xx_StdPeriph_Driver\src\stm32f0xx_adc.o
ADC_StopOfConversion                              Drivers\STM32F0xx_StdPeriph_Driver\src\stm32f0xx_adc.o
ADC_StructInit                                    Drivers\STM32F0xx_StdPeriph_Driver\src\stm32f0xx_adc.o
ADC_TempSensorCmd                                 Drivers\STM32F0xx_StdPeriph_Driver\src\stm32f0xx_adc.o
ADC_VbatCmd                                       Drivers\STM32F0xx_StdPeriph_Driver\src\stm32f0xx_adc.o
ADC_VrefintCmd                                    Drivers\STM32F0xx_StdPeriph_Driver\src\stm32f0xx_adc.o
ADC_WaitModeCmd                                   Drivers\STM32F0xx_StdPeriph_Driver\src\stm32f0xx_adc.o
AHBPrescTable                                     src\system_stm32f0xx.o
A_AXIS_LUT                                        src\grbl\stepper.o
CAN_CancelTransmit                                Drivers\STM32F0xx_StdPeriph_Driver\src\stm32f0xx_can.o
CAN_ClearFlag                                     Drivers\STM32F0xx_StdPeriph_Driver\src\stm32f0xx_can.o
CAN_ClearITPendingBit                             Drivers\STM32F0xx_StdPeriph_Driver\src\stm32f0xx_can.o
CAN_DBGFreeze                                     Drivers\STM32F0xx_StdPeriph_Driver\src\stm32f0xx_can.o
CAN_DeInit                                        Drivers\STM32F0xx_StdPeriph_Driver\src\stm32f0xx_can.o
CAN_FIFORelease                                   Drivers\STM32F0xx_StdPeriph_Driver\src\stm32f0xx_can.o
CAN_FilterInit                                    Drivers\STM32F0xx_StdPeriph_Driver\src\stm32f0xx_can.o
CAN_GetFlagStatus                                 Drivers\STM32F0xx_StdPeriph_Driver\src\stm32f0xx_can.o
CAN_GetITStatus                                   Drivers\STM32F0xx_StdPeriph_Driver\src\stm32f0xx_can.o
CAN_GetLSBTransmitErrorCounter                    Drivers\STM32F0xx_StdPeriph_Driver\src\stm32f0xx_can.o
CAN_GetLastErrorCode                              Drivers\STM32F0xx_StdPeriph_Driver\src\stm32f0xx_can.o
CAN_GetReceiveErrorCounter                        Drivers\STM32F0xx_StdPeriph_Driver\src\stm32f0xx_can.o
CAN_ITConfig                                      Drivers\STM32F0xx_StdPeriph_Driver\src\stm32f0xx_can.o
CAN_Init                                          Drivers\STM32F0xx_StdPeriph_Driver\src\stm32f0xx_can.o
CAN_MessagePending                                Drivers\STM32F0xx_StdPeriph_Driver\src\stm32f0xx_can.o
CAN_OperatingModeRequest                          Drivers\STM32F0xx_StdPeriph_Driver\src\stm32f0xx_can.o
CAN_Receive                                       Drivers\STM32F0xx_StdPeriph_Driver\src\stm32f0xx_can.o
CAN_SlaveStartBank                                Drivers\STM32F0xx_StdPeriph_Driver\src\stm32f0xx_can.o
CAN_Sleep                                         Drivers\STM32F0xx_StdPeriph_Driver\src\stm32f0xx_can.o
CAN_StructInit                                    Drivers\STM32F0xx_StdPeriph_Driver\src\stm32f0xx_can.o
CAN_TTComModeCmd                                  Drivers\STM32F0xx_StdPeriph_Driver\src\stm32f0xx_can.o
CAN_Transmit                                      Drivers\STM32F0xx_StdPeriph_Driver\src\stm32f0xx_can.o
CAN_TransmitStatus                                Drivers\STM32F0xx_StdPeriph_Driver\src\stm32f0xx_can.o
CAN_WakeUp                                        Drivers\STM32F0xx_StdPeriph_Driver\src\stm32f0xx_can.o
CEC_ClearFlag                                     Drivers\STM32F0xx_StdPeriph_Driver\src\stm32f0xx_cec.o
CEC_ClearITPendingBit                             Drivers\STM32F0xx_StdPeriph_Driver\src\stm32f0xx_cec.o
CEC_Cmd                                           Drivers\STM32F0xx_StdPeriph_Driver\src\stm32f0xx_cec.o
CEC_DeInit                                        Drivers\STM32F0xx_StdPeriph_Driver\src\stm32f0xx_cec.o
CEC_EndOfMessage                                  Drivers\STM32F0xx_StdPeriph_Driver\src\stm32f0xx_cec.o
CEC_GetFlagStatus                                 Drivers\STM32F0xx_StdPeriph_Driver\src\stm32f0xx_cec.o
CEC_GetITStatus                                   Drivers\STM32F0xx_StdPeriph_Driver\src\stm32f0xx_cec.o
CEC_IRQHandler                                    src\startup_stm32f051.o
CEC_ITConfig                                      Drivers\STM32F0xx_StdPeriph_Driver\src\stm32f0xx_cec.o
CEC_Init                                          Drivers\STM32F0xx_StdPeriph_Driver\src\stm32f0xx_cec.o
CEC_ListenModeCmd                                 Drivers\STM32F0xx_StdPeriph_Driver\src\stm32f0xx_cec.o
CEC_OwnAddressClear                               Drivers\STM32F0xx_StdPeriph_Driver\src\stm32f0xx_cec.o
CEC_OwnAddressConfig                              Drivers\STM32F0xx_StdPeriph_Driver\src\stm32f0xx_cec.o
CEC_ReceiveData                                   Drivers\STM32F0xx_StdPeriph_Driver\src\stm32f0xx_cec.o
CEC_SendData                                      Drivers\STM32F0xx_StdPeriph_Driver\src\stm32f0xx_cec.o
CEC_StartOfMessage                                Drivers\STM32F0xx_StdPeriph_Driver\src\stm32f0xx_cec.o
CEC_StructInit                                    Drivers\STM32F0xx_StdPeriph_Driver\src\stm32f0xx_cec.o
COMP_Cmd                                          Drivers\STM32F0xx_StdPeriph_Driver\src\stm32f0xx_comp.o
COMP_DeInit                                       Drivers\STM32F0xx_StdPeriph_Driver\src\stm32f0xx_comp.o
COMP_GetOutputLevel                               Drivers\STM32F0xx_StdPeriph_Driver\src\stm32f0xx_comp.o
COMP_Init                                         Drivers\STM32F0xx_StdPeriph_Driver\src\stm32f0xx_comp.o
COMP_LockConfig                                   Drivers\STM32F0xx_StdPeriph_Driver\src\stm32f0xx_comp.o
COMP_StructInit                                   Drivers\STM32F0xx_StdPeriph_Driver\src\stm32f0xx_comp.o
COMP_SwitchCmd                                    Drivers\STM32F0xx_StdPeriph_Driver\src\stm32f0xx_comp.o
COMP_WindowCmd                                    Drivers\STM32F0xx_StdPeriph_Driver\src\stm32f0xx_comp.o
CRC_CalcBlockCRC                                  Drivers\STM32F0xx_StdPeriph_Driver\src\stm32f0xx_crc.o
CRC_CalcCRC                                       Drivers\STM32F0xx_StdPeriph_Driver\src\stm32f0xx_crc.o
CRC_CalcCRC16bits                                 Drivers\STM32F0xx_StdPeriph_Driver\src\stm32f0xx_crc.o
CRC_CalcCRC8bits                                  Drivers\STM32F0xx_StdPeriph_Driver\src\stm32f0xx_crc.o
CRC_DeInit                                        Drivers\STM32F0xx_StdPeriph_Driver\src\stm32f0xx_crc.o
CRC_GetCRC                                        Drivers\STM32F0xx_StdPeriph_Driver\src\stm32f0xx_crc.o
CRC_GetIDRegister                                 Drivers\STM32F0xx_StdPeriph_Driver\src\stm32f0xx_crc.o
CRC_PolynomialSizeSelect                          Drivers\STM32F0xx_StdPeriph_Driver\src\stm32f0xx_crc.o
CRC_ResetDR                                       Drivers\STM32F0xx_StdPeriph_Driver\src\stm32f0xx_crc.o
CRC_ReverseInputDataSelect                        Drivers\STM32F0xx_StdPeriph_Driver\src\stm32f0xx_crc.o
CRC_ReverseOutputDataCmd                          Drivers\STM32F0xx_StdPeriph_Driver\src\stm32f0xx_crc.o
CRC_SetIDRegister                                 Drivers\STM32F0xx_StdPeriph_Driver\src\stm32f0xx_crc.o
CRC_SetInitRegister                               Drivers\STM32F0xx_StdPeriph_Driver\src\stm32f0xx_crc.o
CRC_SetPolynomial                                 Drivers\STM32F0xx_StdPeriph_Driver\src\stm32f0xx_crc.o
CRS_AdjustHSI48CalibrationValue                   Drivers\STM32F0xx_StdPeriph_Driver\src\stm32f0xx_crs.o
CRS_AutomaticCalibrationCmd                       Drivers\STM32F0xx_StdPeriph_Driver\src\stm32f0xx_crs.o
CRS_ClearFlag                                     Drivers\STM32F0xx_StdPeriph_Driver\src\stm32f0xx_crs.o
CRS_ClearITPendingBit                             Drivers\STM32F0xx_StdPeriph_Driver\src\stm32f0xx_crs.o
CRS_DeInit                                        Drivers\STM32F0xx_StdPeriph_Driver\src\stm32f0xx_crs.o
CRS_FrequencyErrorCounterCmd                      Drivers\STM32F0xx_StdPeriph_Driver\src\stm32f0xx_crs.o
CRS_FrequencyErrorCounterReload                   Drivers\STM32F0xx_StdPeriph_Driver\src\stm32f0xx_crs.o
CRS_FrequencyErrorLimitConfig                     Drivers\STM32F0xx_StdPeriph_Driver\src\stm32f0xx_crs.o
CRS_GetFlagStatus                                 Drivers\STM32F0xx_StdPeriph_Driver\src\stm32f0xx_crs.o
CRS_GetFrequencyErrorDirection                    Drivers\STM32F0xx_StdPeriph_Driver\src\stm32f0xx_crs.o
CRS_GetFrequencyErrorValue                        Drivers\STM32F0xx_StdPeriph_Driver\src\stm32f0xx_crs.o
CRS_GetHSI48CalibrationValue                      Drivers\STM32F0xx_StdPeriph_Driver\src\stm32f0xx_crs.o
CRS_GetITStatus                                   Drivers\STM32F0xx_StdPeriph_Driver\src\stm32f0xx_crs.o
CRS_GetReloadValue                                Drivers\STM32F0xx_StdPeriph_Driver\src\stm32f0xx_crs.o
CRS_ITConfig                                      Drivers\STM32F0xx_StdPeriph_Driver\src\stm32f0xx_crs.o
CRS_SoftwareSynchronizationGenerate               Drivers\STM32F0xx_StdPeriph_Driver\src\stm32f0xx_crs.o
CRS_SynchronizationPolarityConfig                 Drivers\STM32F0xx_StdPeriph_Driver\src\stm32f0xx_crs.o
CRS_SynchronizationPrescalerConfig                Drivers\STM32F0xx_StdPeriph_Driver\src\stm32f0xx_crs.o
CRS_SynchronizationSourceConfig                   Drivers\STM32F0xx_StdPeriph_Driver\src\stm32f0xx_crs.o
DAC_ClearFlag                                     Drivers\STM32F0xx_StdPeriph_Driver\src\stm32f0xx_dac.o
DAC_ClearITPendingBit                             Drivers\STM32F0xx_StdPeriph_Driver\src\stm32f0xx_dac.o
DAC_Cmd                                           Drivers\STM32F0xx_StdPeriph_Driver\src\stm32f0xx_dac.o
DAC_DMACmd                                        Drivers\STM32F0xx_StdPeriph_Driver\src\stm32f0xx_dac.o
DAC_DeInit                                        Drivers\STM32F0xx_StdPeriph_Driver\src\stm32f0xx_dac.o
DAC_DualSoftwareTriggerCmd                        Drivers\STM32F0xx_StdPeriph_Driver\src\stm32f0xx_dac.o
DAC_GetDataOutputValue                            Drivers\STM32F0xx_StdPeriph_Driver\src\stm32f0xx_dac.o
DAC_GetFlagStatus                                 Drivers\STM32F0xx_StdPeriph_Driver\src\stm32f0xx_dac.o
DAC_GetITStatus                                   Drivers\STM32F0xx_StdPeriph_Driver\src\stm32f0xx_dac.o
DAC_ITConfig                                      Drivers\STM32F0xx_StdPeriph_Driver\src\stm32f0xx_dac.o
DAC_Init                                          Drivers\STM32F0xx_StdPeriph_Driver\src\stm32f0xx_dac.o
DAC_SetChannel1Data                               Drivers\STM32F0xx_StdPeriph_Driver\src\stm32f0xx_dac.o
DAC_SetChannel2Data                               Drivers\STM32F0xx_StdPeriph_Driver\src\stm32f0xx_dac.o
DAC_SetDualChannelData                            Drivers\STM32F0xx_StdPeriph_Driver\src\stm32f0xx_dac.o
DAC_SoftwareTriggerCmd                            Drivers\STM32F0xx_StdPeriph_Driver\src\stm32f0xx_dac.o
DAC_StructInit                                    Drivers\STM32F0xx_StdPeriph_Driver\src\stm32f0xx_dac.o
DAC_WaveGenerationCmd                             Drivers\STM32F0xx_StdPeriph_Driver\src\stm32f0xx_dac.o
DBGMCU_APB1PeriphConfig                           Drivers\STM32F0xx_StdPeriph_Driver\src\stm32f0xx_dbgmcu.o
DBGMCU_APB2PeriphConfig                           Drivers\STM32F0xx_StdPeriph_Driver\src\stm32f0xx_dbgmcu.o
DBGMCU_Config                                     Drivers\STM32F0xx_StdPeriph_Driver\src\stm32f0xx_dbgmcu.o
DBGMCU_GetDEVID                                   Drivers\STM32F0xx_StdPeriph_Driver\src\stm32f0xx_dbgmcu.o
DBGMCU_GetREVID                                   Drivers\STM32F0xx_StdPeriph_Driver\src\stm32f0xx_dbgmcu.o
DMA1_Channel1_IRQHandler                          src\startup_stm32f051.o
DMA1_Channel2_3_IRQHandler                        src\startup_stm32f051.o
DMA1_Channel4_5_IRQHandler                        src\startup_stm32f051.o
DMA_ClearFlag                                     Drivers\STM32F0xx_StdPeriph_Driver\src\stm32f0xx_dma.o
DMA_ClearITPendingBit                             Drivers\STM32F0xx_StdPeriph_Driver\src\stm32f0xx_dma.o
DMA_Cmd                                           Drivers\STM32F0xx_StdPeriph_Driver\src\stm32f0xx_dma.o
DMA_DeInit                                        Drivers\STM32F0xx_StdPeriph_Driver\src\stm32f0xx_dma.o
DMA_GetCurrDataCounter                            Drivers\STM32F0xx_StdPeriph_Driver\src\stm32f0xx_dma.o
DMA_GetFlagStatus                                 Drivers\STM32F0xx_StdPeriph_Driver\src\stm32f0xx_dma.o
DMA_GetITStatus                                   Drivers\STM32F0xx_StdPeriph_Driver\src\stm32f0xx_dma.o
DMA_ITConfig                                      Drivers\STM32F0xx_StdPeriph_Driver\src\stm32f0xx_dma.o
DMA_Init                                          Drivers\STM32F0xx_StdPeriph_Driver\src\stm32f0xx_dma.o
DMA_RemapConfig                                   Drivers\STM32F0xx_StdPeriph_Driver\src\stm32f0xx_dma.o
DMA_SetCurrDataCounter                            Drivers\STM32F0xx_StdPeriph_Driver\src\stm32f0xx_dma.o
DMA_StructInit                                    Drivers\STM32F0xx_StdPeriph_Driver\src\stm32f0xx_dma.o
Default_Handler                                   src\startup_stm32f051.o
EE_Buffer                                         src\grbl\eeprom.o
EXTI0_1_IRQHandler                                src\startup_stm32f051.o
EXTI2_3_IRQHandler                                src\startup_stm32f051.o
EXTI4_15_IRQHandler                               src\grbl\limits.o
EXTI9_5_IRQHandler                                src\grbl\system.o
EXTI_ClearFlag                                    Drivers\STM32F0xx_StdPeriph_Driver\src\stm32f0xx_exti.o
EXTI_ClearITPendingBit                            Drivers\STM32F0xx_StdPeriph_Driver\src\stm32f0xx_exti.o
                                                  src\grbl\limits.o
EXTI_DeInit                                       Drivers\STM32F0xx_StdPeriph_Driver\src\stm32f0xx_exti.o
EXTI_GenerateSWInterrupt                          Drivers\STM32F0xx_StdPeriph_Driver\src\stm32f0xx_exti.o
EXTI_GetFlagStatus                                Drivers\STM32F0xx_StdPeriph_Driver\src\stm32f0xx_exti.o
EXTI_GetITStatus                                  Drivers\STM32F0xx_StdPeriph_Driver\src\stm32f0xx_exti.o
                                                  src\grbl\limits.o
EXTI_Init                                         Drivers\STM32F0xx_StdPeriph_Driver\src\stm32f0xx_exti.o
                                                  src\grbl\system.o
                                                  src\grbl\limits.o
EXTI_StructInit                                   Drivers\STM32F0xx_StdPeriph_Driver\src\stm32f0xx_exti.o
FLASH_ClearFlag                                   Drivers\STM32F0xx_StdPeriph_Driver\src\stm32f0xx_flash.o
FLASH_EraseAllPages                               Drivers\STM32F0xx_StdPeriph_Driver\src\stm32f0xx_flash.o
FLASH_ErasePage                                   Drivers\STM32F0xx_StdPeriph_Driver\src\stm32f0xx_flash.o
FLASH_GetFlagStatus                               Drivers\STM32F0xx_StdPeriph_Driver\src\stm32f0xx_flash.o
FLASH_GetPrefetchBufferStatus                     Drivers\STM32F0xx_StdPeriph_Driver\src\stm32f0xx_flash.o
FLASH_GetStatus                                   Drivers\STM32F0xx_StdPeriph_Driver\src\stm32f0xx_flash.o
FLASH_IRQHandler                                  src\startup_stm32f051.o
FLASH_ITConfig                                    Drivers\STM32F0xx_StdPeriph_Driver\src\stm32f0xx_flash.o
FLASH_Lock                                        Drivers\STM32F0xx_StdPeriph_Driver\src\stm32f0xx_flash.o
FLASH_OB_BOOT0Config                              Drivers\STM32F0xx_StdPeriph_Driver\src\stm32f0xx_flash.o
FLASH_OB_BOOT0SWConfig                            Drivers\STM32F0xx_StdPeriph_Driver\src\stm32f0xx_flash.o
FLASH_OB_BOOTConfig                               Drivers\STM32F0xx_StdPeriph_Driver\src\stm32f0xx_flash.o
FLASH_OB_EnableWRP                                Drivers\STM32F0xx_StdPeriph_Driver\src\stm32f0xx_flash.o
FLASH_OB_Erase                                    Drivers\STM32F0xx_StdPeriph_Driver\src\stm32f0xx_flash.o
FLASH_OB_GetRDP                                   Drivers\STM32F0xx_StdPeriph_Driver\src\stm32f0xx_flash.o
FLASH_OB_GetUser                                  Drivers\STM32F0xx_StdPeriph_Driver\src\stm32f0xx_flash.o
FLASH_OB_GetWRP                                   Drivers\STM32F0xx_StdPeriph_Driver\src\stm32f0xx_flash.o
FLASH_OB_Launch                                   Drivers\STM32F0xx_StdPeriph_Driver\src\stm32f0xx_flash.o
FLASH_OB_Lock                                     Drivers\STM32F0xx_StdPeriph_Driver\src\stm32f0xx_flash.o
FLASH_OB_ProgramData                              Drivers\STM32F0xx_StdPeriph_Driver\src\stm32f0xx_flash.o
FLASH_OB_RDPConfig                                Drivers\STM32F0xx_StdPeriph_Driver\src\stm32f0xx_flash.o
FLASH_OB_SRAMParityConfig                         Drivers\STM32F0xx_StdPeriph_Driver\src\stm32f0xx_flash.o
FLASH_OB_Unlock                                   Drivers\STM32F0xx_StdPeriph_Driver\src\stm32f0xx_flash.o
FLASH_OB_UserConfig                               Drivers\STM32F0xx_StdPeriph_Driver\src\stm32f0xx_flash.o
FLASH_OB_VDDAConfig                               Drivers\STM32F0xx_StdPeriph_Driver\src\stm32f0xx_flash.o
FLASH_OB_WriteUser                                Drivers\STM32F0xx_StdPeriph_Driver\src\stm32f0xx_flash.o
FLASH_PrefetchBufferCmd                           Drivers\STM32F0xx_StdPeriph_Driver\src\stm32f0xx_flash.o
FLASH_ProgramHalfWord                             Drivers\STM32F0xx_StdPeriph_Driver\src\stm32f0xx_flash.o
FLASH_ProgramWord                                 Drivers\STM32F0xx_StdPeriph_Driver\src\stm32f0xx_flash.o
FLASH_SetLatency                                  Drivers\STM32F0xx_StdPeriph_Driver\src\stm32f0xx_flash.o
FLASH_Unlock                                      Drivers\STM32F0xx_StdPeriph_Driver\src\stm32f0xx_flash.o
FLASH_WaitForLastOperation                        Drivers\STM32F0xx_StdPeriph_Driver\src\stm32f0xx_flash.o
GPIO_DeInit                                       Drivers\STM32F0xx_StdPeriph_Driver\src\stm32f0xx_gpio.o
GPIO_Init                                         Drivers\STM32F0xx_StdPeriph_Driver\src\stm32f0xx_gpio.o
                                                  src\main.o
                                                  src\grbl\system.o
                                                  src\grbl\stepper.o
                                                  src\grbl\spindle_control.o
                                                  src\grbl\probe.o
                                                  src\grbl\limits.o
GPIO_PinAFConfig                                  Drivers\STM32F0xx_StdPeriph_Driver\src\stm32f0xx_gpio.o
GPIO_PinLockConfig                                Drivers\STM32F0xx_StdPeriph_Driver\src\stm32f0xx_gpio.o
GPIO_ReadInputData                                Drivers\STM32F0xx_StdPeriph_Driver\src\stm32f0xx_gpio.o
                                                  src\grbl\system.o
                                                  src\grbl\spindle_control.o
                                                  src\grbl\probe.o
                                                  src\grbl\limits.o
GPIO_ReadInputDataBit                             Drivers\STM32F0xx_StdPeriph_Driver\src\stm32f0xx_gpio.o
GPIO_ReadOutputData                               Drivers\STM32F0xx_StdPeriph_Driver\src\stm32f0xx_gpio.o
                                                  src\grbl\stepper.o
GPIO_ReadOutputDataBit                            Drivers\STM32F0xx_StdPeriph_Driver\src\stm32f0xx_gpio.o
GPIO_ResetBits                                    Drivers\STM32F0xx_StdPeriph_Driver\src\stm32f0xx_gpio.o
                                                  src\grbl\stepper.o
GPIO_SetBits                                      Drivers\STM32F0xx_StdPeriph_Driver\src\stm32f0xx_gpio.o
                                                  src\grbl\stepper.o
GPIO_StructInit                                   Drivers\STM32F0xx_StdPeriph_Driver\src\stm32f0xx_gpio.o
GPIO_Write                                        Drivers\STM32F0xx_StdPeriph_Driver\src\stm32f0xx_gpio.o
                                                  src\grbl\stepper.o
GPIO_WriteBit                                     Drivers\STM32F0xx_StdPeriph_Driver\src\stm32f0xx_gpio.o
                                                  src\main.o
                                                  src\grbl\spindle_control.o
HardFault_Handler                                 src\stm32f0xx_it.o
                                                  src\startup_stm32f051.o
I2C1_IRQHandler                                   src\startup_stm32f051.o
I2C2_IRQHandler                                   src\startup_stm32f051.o
I2C_10BitAddressHeaderCmd                         Drivers\STM32F0xx_StdPeriph_Driver\src\stm32f0xx_i2c.o
I2C_10BitAddressingModeCmd                        Drivers\STM32F0xx_StdPeriph_Driver\src\stm32f0xx_i2c.o
I2C_AcknowledgeConfig                             Drivers\STM32F0xx_StdPeriph_Driver\src\stm32f0xx_i2c.o
I2C_AutoEndCmd                                    Drivers\STM32F0xx_StdPeriph_Driver\src\stm32f0xx_i2c.o
I2C_CalculatePEC                                  Drivers\STM32F0xx_StdPeriph_Driver\src\stm32f0xx_i2c.o
I2C_ClearFlag                                     Drivers\STM32F0xx_StdPeriph_Driver\src\stm32f0xx_i2c.o
I2C_ClearITPendingBit                             Drivers\STM32F0xx_StdPeriph_Driver\src\stm32f0xx_i2c.o
I2C_ClockTimeoutCmd                               Drivers\STM32F0xx_StdPeriph_Driver\src\stm32f0xx_i2c.o
I2C_Cmd                                           Drivers\STM32F0xx_StdPeriph_Driver\src\stm32f0xx_i2c.o
I2C_DMACmd                                        Drivers\STM32F0xx_StdPeriph_Driver\src\stm32f0xx_i2c.o
I2C_DeInit                                        Drivers\STM32F0xx_StdPeriph_Driver\src\stm32f0xx_i2c.o
I2C_DualAddressCmd                                Drivers\STM32F0xx_StdPeriph_Driver\src\stm32f0xx_i2c.o
I2C_ExtendedClockTimeoutCmd                       Drivers\STM32F0xx_StdPeriph_Driver\src\stm32f0xx_i2c.o
I2C_GeneralCallCmd                                Drivers\STM32F0xx_StdPeriph_Driver\src\stm32f0xx_i2c.o
I2C_GenerateSTART                                 Drivers\STM32F0xx_StdPeriph_Driver\src\stm32f0xx_i2c.o
I2C_GenerateSTOP                                  Drivers\STM32F0xx_StdPeriph_Driver\src\stm32f0xx_i2c.o
I2C_GetAddressMatched                             Drivers\STM32F0xx_StdPeriph_Driver\src\stm32f0xx_i2c.o
I2C_GetFlagStatus                                 Drivers\STM32F0xx_StdPeriph_Driver\src\stm32f0xx_i2c.o
I2C_GetITStatus                                   Drivers\STM32F0xx_StdPeriph_Driver\src\stm32f0xx_i2c.o
I2C_GetPEC                                        Drivers\STM32F0xx_StdPeriph_Driver\src\stm32f0xx_i2c.o
I2C_GetTransferDirection                          Drivers\STM32F0xx_StdPeriph_Driver\src\stm32f0xx_i2c.o
I2C_ITConfig                                      Drivers\STM32F0xx_StdPeriph_Driver\src\stm32f0xx_i2c.o
I2C_IdleClockTimeoutCmd                           Drivers\STM32F0xx_StdPeriph_Driver\src\stm32f0xx_i2c.o
I2C_Init                                          Drivers\STM32F0xx_StdPeriph_Driver\src\stm32f0xx_i2c.o
I2C_MasterRequestConfig                           Drivers\STM32F0xx_StdPeriph_Driver\src\stm32f0xx_i2c.o
I2C_NumberOfBytesConfig                           Drivers\STM32F0xx_StdPeriph_Driver\src\stm32f0xx_i2c.o
I2C_OwnAddress2Config                             Drivers\STM32F0xx_StdPeriph_Driver\src\stm32f0xx_i2c.o
I2C_PECRequestCmd                                 Drivers\STM32F0xx_StdPeriph_Driver\src\stm32f0xx_i2c.o
I2C_ReadRegister                                  Drivers\STM32F0xx_StdPeriph_Driver\src\stm32f0xx_i2c.o
I2C_ReceiveData                                   Drivers\STM32F0xx_StdPeriph_Driver\src\stm32f0xx_i2c.o
I2C_ReloadCmd                                     Drivers\STM32F0xx_StdPeriph_Driver\src\stm32f0xx_i2c.o
I2C_SMBusAlertCmd                                 Drivers\STM32F0xx_StdPeriph_Driver\src\stm32f0xx_i2c.o
I2C_SendData                                      Drivers\STM32F0xx_StdPeriph_Driver\src\stm32f0xx_i2c.o
I2C_SlaveAddressConfig                            Drivers\STM32F0xx_StdPeriph_Driver\src\stm32f0xx_i2c.o
I2C_SlaveByteControlCmd                           Drivers\STM32F0xx_StdPeriph_Driver\src\stm32f0xx_i2c.o
I2C_SoftwareResetCmd                              Drivers\STM32F0xx_StdPeriph_Driver\src\stm32f0xx_i2c.o
I2C_StopModeCmd                                   Drivers\STM32F0xx_StdPeriph_Driver\src\stm32f0xx_i2c.o
I2C_StretchClockCmd                               Drivers\STM32F0xx_StdPeriph_Driver\src\stm32f0xx_i2c.o
I2C_StructInit                                    Drivers\STM32F0xx_StdPeriph_Driver\src\stm32f0xx_i2c.o
I2C_TimeoutAConfig                                Drivers\STM32F0xx_StdPeriph_Driver\src\stm32f0xx_i2c.o
I2C_TimeoutBConfig                                Drivers\STM32F0xx_StdPeriph_Driver\src\stm32f0xx_i2c.o
I2C_TransferHandling                              Drivers\STM32F0xx_StdPeriph_Driver\src\stm32f0xx_i2c.o
I2S_Cmd                                           Drivers\STM32F0xx_StdPeriph_Driver\src\stm32f0xx_spi.o
I2S_Init                                          Drivers\STM32F0xx_StdPeriph_Driver\src\stm32f0xx_spi.o
I2S_StructInit                                    Drivers\STM32F0xx_StdPeriph_Driver\src\stm32f0xx_spi.o
IWDG_Enable                                       Drivers\STM32F0xx_StdPeriph_Driver\src\stm32f0xx_iwdg.o
IWDG_GetFlagStatus                                Drivers\STM32F0xx_StdPeriph_Driver\src\stm32f0xx_iwdg.o
IWDG_ReloadCounter                                Drivers\STM32F0xx_StdPeriph_Driver\src\stm32f0xx_iwdg.o
IWDG_SetPrescaler                                 Drivers\STM32F0xx_StdPeriph_Driver\src\stm32f0xx_iwdg.o
IWDG_SetReload                                    Drivers\STM32F0xx_StdPeriph_Driver\src\stm32f0xx_iwdg.o
IWDG_SetWindowValue                               Drivers\STM32F0xx_StdPeriph_Driver\src\stm32f0xx_iwdg.o
IWDG_WriteAccessCmd                               Drivers\STM32F0xx_StdPeriph_Driver\src\stm32f0xx_iwdg.o
LedBlink                                          src\main.o
NMI_Handler                                       src\stm32f0xx_it.o
                                                  src\startup_stm32f051.o
NVIC_Init                                         Drivers\STM32F0xx_StdPeriph_Driver\src\stm32f0xx_misc.o
                                                  src\main.o
                                                  src\grbl\system.o
                                                  src\grbl\stepper.o
                                                  src\grbl\limits.o
NVIC_SystemLPConfig                               Drivers\STM32F0xx_StdPeriph_Driver\src\stm32f0xx_misc.o
PVD_IRQHandler                                    src\startup_stm32f051.o
PWR_BackupAccessCmd                               Drivers\STM32F0xx_StdPeriph_Driver\src\stm32f0xx_pwr.o
PWR_ClearFlag                                     Drivers\STM32F0xx_StdPeriph_Driver\src\stm32f0xx_pwr.o
PWR_DeInit                                        Drivers\STM32F0xx_StdPeriph_Driver\src\stm32f0xx_pwr.o
PWR_EnterSTANDBYMode                              Drivers\STM32F0xx_StdPeriph_Driver\src\stm32f0xx_pwr.o
PWR_EnterSTOPMode                                 Drivers\STM32F0xx_StdPeriph_Driver\src\stm32f0xx_pwr.o
PWR_EnterSleepMode                                Drivers\STM32F0xx_StdPeriph_Driver\src\stm32f0xx_pwr.o
PWR_GetFlagStatus                                 Drivers\STM32F0xx_StdPeriph_Driver\src\stm32f0xx_pwr.o
PWR_PVDCmd                                        Drivers\STM32F0xx_StdPeriph_Driver\src\stm32f0xx_pwr.o
PWR_PVDLevelConfig                                Drivers\STM32F0xx_StdPeriph_Driver\src\stm32f0xx_pwr.o
PWR_WakeUpPinCmd                                  Drivers\STM32F0xx_StdPeriph_Driver\src\stm32f0xx_pwr.o
PendSV_Handler                                    src\stm32f0xx_it.o
                                                  src\startup_stm32f051.o
RCC_ADCCLKConfig                                  Drivers\STM32F0xx_StdPeriph_Driver\src\stm32f0xx_rcc.o
RCC_AHBPeriphClockCmd                             Drivers\STM32F0xx_StdPeriph_Driver\src\stm32f0xx_rcc.o
                                                  src\main.o
                                                  src\grbl\system.o
                                                  src\grbl\limits.o
RCC_AHBPeriphResetCmd                             Drivers\STM32F0xx_StdPeriph_Driver\src\stm32f0xx_rcc.o
                                                  Drivers\STM32F0xx_StdPeriph_Driver\src\stm32f0xx_gpio.o
RCC_APB1PeriphClockCmd                            Drivers\STM32F0xx_StdPeriph_Driver\src\stm32f0xx_rcc.o
RCC_APB1PeriphResetCmd                            Drivers\STM32F0xx_StdPeriph_Driver\src\stm32f0xx_rcc.o
                                                  Drivers\STM32F0xx_StdPeriph_Driver\src\stm32f0xx_wwdg.o
                                                  Drivers\STM32F0xx_StdPeriph_Driver\src\stm32f0xx_usart.o
                                                  Drivers\STM32F0xx_StdPeriph_Driver\src\stm32f0xx_tim.o
                                                  Drivers\STM32F0xx_StdPeriph_Driver\src\stm32f0xx_spi.o
                                                  Drivers\STM32F0xx_StdPeriph_Driver\src\stm32f0xx_pwr.o
                                                  Drivers\STM32F0xx_StdPeriph_Driver\src\stm32f0xx_i2c.o
                                                  Drivers\STM32F0xx_StdPeriph_Driver\src\stm32f0xx_dac.o
                                                  Drivers\STM32F0xx_StdPeriph_Driver\src\stm32f0xx_crs.o
                                                  Drivers\STM32F0xx_StdPeriph_Driver\src\stm32f0xx_cec.o
                                                  Drivers\STM32F0xx_StdPeriph_Driver\src\stm32f0xx_can.o
RCC_APB2PeriphClockCmd                            Drivers\STM32F0xx_StdPeriph_Driver\src\stm32f0xx_rcc.o
                                                  src\main.o
                                                  src\grbl\system.o
                                                  src\grbl\stepper.o
                                                  src\grbl\spindle_control.o
                                                  src\grbl\probe.o
                                                  src\grbl\limits.o
RCC_APB2PeriphResetCmd                            Drivers\STM32F0xx_StdPeriph_Driver\src\stm32f0xx_rcc.o
                                                  Drivers\STM32F0xx_StdPeriph_Driver\src\stm32f0xx_usart.o
                                                  Drivers\STM32F0xx_StdPeriph_Driver\src\stm32f0xx_tim.o
                                                  Drivers\STM32F0xx_StdPeriph_Driver\src\stm32f0xx_spi.o
                                                  Drivers\STM32F0xx_StdPeriph_Driver\src\stm32f0xx_adc.o
RCC_AdjustHSI14CalibrationValue                   Drivers\STM32F0xx_StdPeriph_Driver\src\stm32f0xx_rcc.o
RCC_AdjustHSICalibrationValue                     Drivers\STM32F0xx_StdPeriph_Driver\src\stm32f0xx_rcc.o
RCC_BackupResetCmd                                Drivers\STM32F0xx_StdPeriph_Driver\src\stm32f0xx_rcc.o
RCC_CECCLKConfig                                  Drivers\STM32F0xx_StdPeriph_Driver\src\stm32f0xx_rcc.o
RCC_ClearFlag                                     Drivers\STM32F0xx_StdPeriph_Driver\src\stm32f0xx_rcc.o
RCC_ClearITPendingBit                             Drivers\STM32F0xx_StdPeriph_Driver\src\stm32f0xx_rcc.o
RCC_ClockSecuritySystemCmd                        Drivers\STM32F0xx_StdPeriph_Driver\src\stm32f0xx_rcc.o
RCC_DeInit                                        Drivers\STM32F0xx_StdPeriph_Driver\src\stm32f0xx_rcc.o
RCC_GetClocksFreq                                 Drivers\STM32F0xx_StdPeriph_Driver\src\stm32f0xx_rcc.o
                                                  Drivers\STM32F0xx_StdPeriph_Driver\src\stm32f0xx_usart.o
                                                  Drivers\STM32F0xx_StdPeriph_Driver\src\stm32f0xx_spi.o
RCC_GetFlagStatus                                 Drivers\STM32F0xx_StdPeriph_Driver\src\stm32f0xx_rcc.o
RCC_GetITStatus                                   Drivers\STM32F0xx_StdPeriph_Driver\src\stm32f0xx_rcc.o
RCC_GetSYSCLKSource                               Drivers\STM32F0xx_StdPeriph_Driver\src\stm32f0xx_rcc.o
RCC_HCLKConfig                                    Drivers\STM32F0xx_StdPeriph_Driver\src\stm32f0xx_rcc.o
                                                  src\main.o
RCC_HSEConfig                                     Drivers\STM32F0xx_StdPeriph_Driver\src\stm32f0xx_rcc.o
RCC_HSI14ADCRequestCmd                            Drivers\STM32F0xx_StdPeriph_Driver\src\stm32f0xx_rcc.o
RCC_HSI14Cmd                                      Drivers\STM32F0xx_StdPeriph_Driver\src\stm32f0xx_rcc.o
RCC_HSI48Cmd                                      Drivers\STM32F0xx_StdPeriph_Driver\src\stm32f0xx_rcc.o
RCC_HSICmd                                        Drivers\STM32F0xx_StdPeriph_Driver\src\stm32f0xx_rcc.o
RCC_I2CCLKConfig                                  Drivers\STM32F0xx_StdPeriph_Driver\src\stm32f0xx_rcc.o
RCC_IRQHandler                                    src\startup_stm32f051.o
RCC_ITConfig                                      Drivers\STM32F0xx_StdPeriph_Driver\src\stm32f0xx_rcc.o
RCC_LSEConfig                                     Drivers\STM32F0xx_StdPeriph_Driver\src\stm32f0xx_rcc.o
RCC_LSEDriveConfig                                Drivers\STM32F0xx_StdPeriph_Driver\src\stm32f0xx_rcc.o
RCC_LSICmd                                        Drivers\STM32F0xx_StdPeriph_Driver\src\stm32f0xx_rcc.o
RCC_MCOConfig                                     Drivers\STM32F0xx_StdPeriph_Driver\src\stm32f0xx_rcc.o
RCC_PCLKConfig                                    Drivers\STM32F0xx_StdPeriph_Driver\src\stm32f0xx_rcc.o
RCC_PLLCmd                                        Drivers\STM32F0xx_StdPeriph_Driver\src\stm32f0xx_rcc.o
RCC_PLLConfig                                     Drivers\STM32F0xx_StdPeriph_Driver\src\stm32f0xx_rcc.o
RCC_PREDIV1Config                                 Drivers\STM32F0xx_StdPeriph_Driver\src\stm32f0xx_rcc.o
RCC_RTCCLKCmd                                     Drivers\STM32F0xx_StdPeriph_Driver\src\stm32f0xx_rcc.o
RCC_RTCCLKConfig                                  Drivers\STM32F0xx_StdPeriph_Driver\src\stm32f0xx_rcc.o
RCC_SYSCLKConfig                                  Drivers\STM32F0xx_StdPeriph_Driver\src\stm32f0xx_rcc.o
RCC_USARTCLKConfig                                Drivers\STM32F0xx_StdPeriph_Driver\src\stm32f0xx_rcc.o
                                                  src\main.o
RCC_USBCLKConfig                                  Drivers\STM32F0xx_StdPeriph_Driver\src\stm32f0xx_rcc.o
RCC_WaitForHSEStartUp                             Drivers\STM32F0xx_StdPeriph_Driver\src\stm32f0xx_rcc.o
RTC_AlarmCmd                                      Drivers\STM32F0xx_StdPeriph_Driver\src\stm32f0xx_rtc.o
RTC_AlarmStructInit                               Drivers\STM32F0xx_StdPeriph_Driver\src\stm32f0xx_rtc.o
RTC_AlarmSubSecondConfig                          Drivers\STM32F0xx_StdPeriph_Driver\src\stm32f0xx_rtc.o
RTC_BypassShadowCmd                               Drivers\STM32F0xx_StdPeriph_Driver\src\stm32f0xx_rtc.o
RTC_CalibOutputCmd                                Drivers\STM32F0xx_StdPeriph_Driver\src\stm32f0xx_rtc.o
RTC_CalibOutputConfig                             Drivers\STM32F0xx_StdPeriph_Driver\src\stm32f0xx_rtc.o
RTC_ClearFlag                                     Drivers\STM32F0xx_StdPeriph_Driver\src\stm32f0xx_rtc.o
RTC_ClearITPendingBit                             Drivers\STM32F0xx_StdPeriph_Driver\src\stm32f0xx_rtc.o
RTC_DateStructInit                                Drivers\STM32F0xx_StdPeriph_Driver\src\stm32f0xx_rtc.o
RTC_DayLightSavingConfig                          Drivers\STM32F0xx_StdPeriph_Driver\src\stm32f0xx_rtc.o
RTC_DeInit                                        Drivers\STM32F0xx_StdPeriph_Driver\src\stm32f0xx_rtc.o
RTC_EnterInitMode                                 Drivers\STM32F0xx_StdPeriph_Driver\src\stm32f0xx_rtc.o
RTC_ExitInitMode                                  Drivers\STM32F0xx_StdPeriph_Driver\src\stm32f0xx_rtc.o
RTC_GetAlarm                                      Drivers\STM32F0xx_StdPeriph_Driver\src\stm32f0xx_rtc.o
RTC_GetAlarmSubSecond                             Drivers\STM32F0xx_StdPeriph_Driver\src\stm32f0xx_rtc.o
RTC_GetDate                                       Drivers\STM32F0xx_StdPeriph_Driver\src\stm32f0xx_rtc.o
RTC_GetFlagStatus                                 Drivers\STM32F0xx_StdPeriph_Driver\src\stm32f0xx_rtc.o
RTC_GetITStatus                                   Drivers\STM32F0xx_StdPeriph_Driver\src\stm32f0xx_rtc.o
RTC_GetStoreOperation                             Drivers\STM32F0xx_StdPeriph_Driver\src\stm32f0xx_rtc.o
RTC_GetSubSecond                                  Drivers\STM32F0xx_StdPeriph_Driver\src\stm32f0xx_rtc.o
RTC_GetTime                                       Drivers\STM32F0xx_StdPeriph_Driver\src\stm32f0xx_rtc.o
RTC_GetTimeStamp                                  Drivers\STM32F0xx_StdPeriph_Driver\src\stm32f0xx_rtc.o
RTC_GetTimeStampSubSecond                         Drivers\STM32F0xx_StdPeriph_Driver\src\stm32f0xx_rtc.o
RTC_GetWakeUpCounter                              Drivers\STM32F0xx_StdPeriph_Driver\src\stm32f0xx_rtc.o
RTC_IRQHandler                                    src\startup_stm32f051.o
RTC_ITConfig                                      Drivers\STM32F0xx_StdPeriph_Driver\src\stm32f0xx_rtc.o
RTC_Init                                          Drivers\STM32F0xx_StdPeriph_Driver\src\stm32f0xx_rtc.o
RTC_OutputConfig                                  Drivers\STM32F0xx_StdPeriph_Driver\src\stm32f0xx_rtc.o
RTC_OutputTypeConfig                              Drivers\STM32F0xx_StdPeriph_Driver\src\stm32f0xx_rtc.o
RTC_ReadBackupRegister                            Drivers\STM32F0xx_StdPeriph_Driver\src\stm32f0xx_rtc.o
RTC_RefClockCmd                                   Drivers\STM32F0xx_StdPeriph_Driver\src\stm32f0xx_rtc.o
RTC_SetAlarm                                      Drivers\STM32F0xx_StdPeriph_Driver\src\stm32f0xx_rtc.o
RTC_SetDate                                       Drivers\STM32F0xx_StdPeriph_Driver\src\stm32f0xx_rtc.o
RTC_SetTime                                       Drivers\STM32F0xx_StdPeriph_Driver\src\stm32f0xx_rtc.o
RTC_SetWakeUpCounter                              Drivers\STM32F0xx_StdPeriph_Driver\src\stm32f0xx_rtc.o
RTC_SmoothCalibConfig                             Drivers\STM32F0xx_StdPeriph_Driver\src\stm32f0xx_rtc.o
RTC_StructInit                                    Drivers\STM32F0xx_StdPeriph_Driver\src\stm32f0xx_rtc.o
RTC_SynchroShiftConfig                            Drivers\STM32F0xx_StdPeriph_Driver\src\stm32f0xx_rtc.o
RTC_TamperCmd                                     Drivers\STM32F0xx_StdPeriph_Driver\src\stm32f0xx_rtc.o
RTC_TamperFilterConfig                            Drivers\STM32F0xx_StdPeriph_Driver\src\stm32f0xx_rtc.o
RTC_TamperPinsPrechargeDuration                   Drivers\STM32F0xx_StdPeriph_Driver\src\stm32f0xx_rtc.o
RTC_TamperPullUpCmd                               Drivers\STM32F0xx_StdPeriph_Driver\src\stm32f0xx_rtc.o
RTC_TamperSamplingFreqConfig                      Drivers\STM32F0xx_StdPeriph_Driver\src\stm32f0xx_rtc.o
RTC_TamperTriggerConfig                           Drivers\STM32F0xx_StdPeriph_Driver\src\stm32f0xx_rtc.o
RTC_TimeStampCmd                                  Drivers\STM32F0xx_StdPeriph_Driver\src\stm32f0xx_rtc.o
RTC_TimeStampOnTamperDetectionCmd                 Drivers\STM32F0xx_StdPeriph_Driver\src\stm32f0xx_rtc.o
RTC_TimeStructInit                                Drivers\STM32F0xx_StdPeriph_Driver\src\stm32f0xx_rtc.o
RTC_WaitForSynchro                                Drivers\STM32F0xx_StdPeriph_Driver\src\stm32f0xx_rtc.o
RTC_WakeUpClockConfig                             Drivers\STM32F0xx_StdPeriph_Driver\src\stm32f0xx_rtc.o
RTC_WakeUpCmd                                     Drivers\STM32F0xx_StdPeriph_Driver\src\stm32f0xx_rtc.o
RTC_WriteBackupRegister                           Drivers\STM32F0xx_StdPeriph_Driver\src\stm32f0xx_rtc.o
RTC_WriteProtectionCmd                            Drivers\STM32F0xx_StdPeriph_Driver\src\stm32f0xx_rtc.o
Reset_Handler                                     src\startup_stm32f051.o
SPI1_IRQHandler                                   src\startup_stm32f051.o
SPI2_IRQHandler                                   src\startup_stm32f051.o
SPI_BiDirectionalLineConfig                       Drivers\STM32F0xx_StdPeriph_Driver\src\stm32f0xx_spi.o
SPI_CRCLengthConfig                               Drivers\STM32F0xx_StdPeriph_Driver\src\stm32f0xx_spi.o
SPI_CalculateCRC                                  Drivers\STM32F0xx_StdPeriph_Driver\src\stm32f0xx_spi.o
SPI_Cmd                                           Drivers\STM32F0xx_StdPeriph_Driver\src\stm32f0xx_spi.o
SPI_DataSizeConfig                                Drivers\STM32F0xx_StdPeriph_Driver\src\stm32f0xx_spi.o
SPI_GetCRC                                        Drivers\STM32F0xx_StdPeriph_Driver\src\stm32f0xx_spi.o
SPI_GetCRCPolynomial                              Drivers\STM32F0xx_StdPeriph_Driver\src\stm32f0xx_spi.o
SPI_GetReceptionFIFOStatus                        Drivers\STM32F0xx_StdPeriph_Driver\src\stm32f0xx_spi.o
SPI_GetTransmissionFIFOStatus                     Drivers\STM32F0xx_StdPeriph_Driver\src\stm32f0xx_spi.o
SPI_I2S_ClearFlag                                 Drivers\STM32F0xx_StdPeriph_Driver\src\stm32f0xx_spi.o
SPI_I2S_DMACmd                                    Drivers\STM32F0xx_StdPeriph_Driver\src\stm32f0xx_spi.o
SPI_I2S_DeInit                                    Drivers\STM32F0xx_StdPeriph_Driver\src\stm32f0xx_spi.o
SPI_I2S_GetFlagStatus                             Drivers\STM32F0xx_StdPeriph_Driver\src\stm32f0xx_spi.o
SPI_I2S_GetITStatus                               Drivers\STM32F0xx_StdPeriph_Driver\src\stm32f0xx_spi.o
SPI_I2S_ITConfig                                  Drivers\STM32F0xx_StdPeriph_Driver\src\stm32f0xx_spi.o
SPI_I2S_ReceiveData16                             Drivers\STM32F0xx_StdPeriph_Driver\src\stm32f0xx_spi.o
SPI_I2S_SendData16                                Drivers\STM32F0xx_StdPeriph_Driver\src\stm32f0xx_spi.o
SPI_Init                                          Drivers\STM32F0xx_StdPeriph_Driver\src\stm32f0xx_spi.o
SPI_LastDMATransferCmd                            Drivers\STM32F0xx_StdPeriph_Driver\src\stm32f0xx_spi.o
SPI_NSSInternalSoftwareConfig                     Drivers\STM32F0xx_StdPeriph_Driver\src\stm32f0xx_spi.o
SPI_NSSPulseModeCmd                               Drivers\STM32F0xx_StdPeriph_Driver\src\stm32f0xx_spi.o
SPI_ReceiveData8                                  Drivers\STM32F0xx_StdPeriph_Driver\src\stm32f0xx_spi.o
SPI_RxFIFOThresholdConfig                         Drivers\STM32F0xx_StdPeriph_Driver\src\stm32f0xx_spi.o
SPI_SSOutputCmd                                   Drivers\STM32F0xx_StdPeriph_Driver\src\stm32f0xx_spi.o
SPI_SendData8                                     Drivers\STM32F0xx_StdPeriph_Driver\src\stm32f0xx_spi.o
SPI_StructInit                                    Drivers\STM32F0xx_StdPeriph_Driver\src\stm32f0xx_spi.o
SPI_TIModeCmd                                     Drivers\STM32F0xx_StdPeriph_Driver\src\stm32f0xx_spi.o
SPI_TransmitCRC                                   Drivers\STM32F0xx_StdPeriph_Driver\src\stm32f0xx_spi.o
SVC_Handler                                       src\stm32f0xx_it.o
                                                  src\startup_stm32f051.o
SYSCFG_BreakConfig                                Drivers\STM32F0xx_StdPeriph_Driver\src\stm32f0xx_syscfg.o
SYSCFG_ClearFlag                                  Drivers\STM32F0xx_StdPeriph_Driver\src\stm32f0xx_syscfg.o
SYSCFG_DMAChannelRemapConfig                      Drivers\STM32F0xx_StdPeriph_Driver\src\stm32f0xx_syscfg.o
SYSCFG_DeInit                                     Drivers\STM32F0xx_StdPeriph_Driver\src\stm32f0xx_syscfg.o
SYSCFG_EXTILineConfig                             Drivers\STM32F0xx_StdPeriph_Driver\src\stm32f0xx_syscfg.o
                                                  src\grbl\system.o
                                                  src\grbl\limits.o
SYSCFG_GetFlagStatus                              Drivers\STM32F0xx_StdPeriph_Driver\src\stm32f0xx_syscfg.o
SYSCFG_GetPendingIT                               Drivers\STM32F0xx_StdPeriph_Driver\src\stm32f0xx_syscfg.o
SYSCFG_I2CFastModePlusConfig                      Drivers\STM32F0xx_StdPeriph_Driver\src\stm32f0xx_syscfg.o
SYSCFG_IRDAEnvSelection                           Drivers\STM32F0xx_StdPeriph_Driver\src\stm32f0xx_syscfg.o
SYSCFG_MemoryRemapConfig                          Drivers\STM32F0xx_StdPeriph_Driver\src\stm32f0xx_syscfg.o
SysTick_CLKSourceConfig                           Drivers\STM32F0xx_StdPeriph_Driver\src\stm32f0xx_misc.o
SysTick_Handler                                   src\stm32f0xx_it.o
                                                  src\startup_stm32f051.o
SystemCoreClock                                   src\system_stm32f0xx.o
                                                  src\grbl\stepper.o
                                                  src\grbl\spindle_control.o
SystemCoreClockUpdate                             src\system_stm32f0xx.o
SystemInit                                        src\system_stm32f0xx.o
                                                  src\startup_stm32f051.o
TIM14_IRQHandler                                  src\startup_stm32f051.o
TIM15_IRQHandler                                  src\startup_stm32f051.o
TIM16_IRQHandler                                  src\startup_stm32f051.o
TIM17_IRQHandler                                  src\startup_stm32f051.o
TIM1_BRK_UP_TRG_COM_IRQHandler                    src\startup_stm32f051.o
TIM1_CC_IRQHandler                                src\startup_stm32f051.o
TIM2_IRQHandler                                   src\grbl\stepper.o
TIM3_IRQHandler                                   src\grbl\stepper.o
TIM6_DAC_IRQHandler                               src\startup_stm32f051.o
TIM_ARRPreloadConfig                              Drivers\STM32F0xx_StdPeriph_Driver\src\stm32f0xx_tim.o
TIM_BDTRConfig                                    Drivers\STM32F0xx_StdPeriph_Driver\src\stm32f0xx_tim.o
TIM_BDTRStructInit                                Drivers\STM32F0xx_StdPeriph_Driver\src\stm32f0xx_tim.o
TIM_CCPreloadControl                              Drivers\STM32F0xx_StdPeriph_Driver\src\stm32f0xx_tim.o
TIM_CCxCmd                                        Drivers\STM32F0xx_StdPeriph_Driver\src\stm32f0xx_tim.o
TIM_CCxNCmd                                       Drivers\STM32F0xx_StdPeriph_Driver\src\stm32f0xx_tim.o
TIM_ClearFlag                                     Drivers\STM32F0xx_StdPeriph_Driver\src\stm32f0xx_tim.o
TIM_ClearITPendingBit                             Drivers\STM32F0xx_StdPeriph_Driver\src\stm32f0xx_tim.o
                                                  src\grbl\stepper.o
TIM_ClearOC1Ref                                   Drivers\STM32F0xx_StdPeriph_Driver\src\stm32f0xx_tim.o
TIM_ClearOC2Ref                                   Drivers\STM32F0xx_StdPeriph_Driver\src\stm32f0xx_tim.o
TIM_ClearOC3Ref                                   Drivers\STM32F0xx_StdPeriph_Driver\src\stm32f0xx_tim.o
TIM_ClearOC4Ref                                   Drivers\STM32F0xx_StdPeriph_Driver\src\stm32f0xx_tim.o
TIM_Cmd                                           Drivers\STM32F0xx_StdPeriph_Driver\src\stm32f0xx_tim.o
                                                  src\grbl\stepper.o
                                                  src\grbl\spindle_control.o
TIM_Configuration                                 src\grbl\stepper.o
TIM_CounterModeConfig                             Drivers\STM32F0xx_StdPeriph_Driver\src\stm32f0xx_tim.o
TIM_CtrlPWMOutputs                                Drivers\STM32F0xx_StdPeriph_Driver\src\stm32f0xx_tim.o
                                                  src\grbl\spindle_control.o
TIM_DMACmd                                        Drivers\STM32F0xx_StdPeriph_Driver\src\stm32f0xx_tim.o
TIM_DMAConfig                                     Drivers\STM32F0xx_StdPeriph_Driver\src\stm32f0xx_tim.o
TIM_DeInit                                        Drivers\STM32F0xx_StdPeriph_Driver\src\stm32f0xx_tim.o
TIM_ETRClockMode1Config                           Drivers\STM32F0xx_StdPeriph_Driver\src\stm32f0xx_tim.o
TIM_ETRClockMode2Config                           Drivers\STM32F0xx_StdPeriph_Driver\src\stm32f0xx_tim.o
TIM_ETRConfig                                     Drivers\STM32F0xx_StdPeriph_Driver\src\stm32f0xx_tim.o
TIM_EncoderInterfaceConfig                        Drivers\STM32F0xx_StdPeriph_Driver\src\stm32f0xx_tim.o
TIM_ForcedOC1Config                               Drivers\STM32F0xx_StdPeriph_Driver\src\stm32f0xx_tim.o
TIM_ForcedOC2Config                               Drivers\STM32F0xx_StdPeriph_Driver\src\stm32f0xx_tim.o
TIM_ForcedOC3Config                               Drivers\STM32F0xx_StdPeriph_Driver\src\stm32f0xx_tim.o
TIM_ForcedOC4Config                               Drivers\STM32F0xx_StdPeriph_Driver\src\stm32f0xx_tim.o
TIM_GenerateEvent                                 Drivers\STM32F0xx_StdPeriph_Driver\src\stm32f0xx_tim.o
TIM_GetCapture1                                   Drivers\STM32F0xx_StdPeriph_Driver\src\stm32f0xx_tim.o
TIM_GetCapture2                                   Drivers\STM32F0xx_StdPeriph_Driver\src\stm32f0xx_tim.o
TIM_GetCapture3                                   Drivers\STM32F0xx_StdPeriph_Driver\src\stm32f0xx_tim.o
TIM_GetCapture4                                   Drivers\STM32F0xx_StdPeriph_Driver\src\stm32f0xx_tim.o
TIM_GetCounter                                    Drivers\STM32F0xx_StdPeriph_Driver\src\stm32f0xx_tim.o
TIM_GetFlagStatus                                 Drivers\STM32F0xx_StdPeriph_Driver\src\stm32f0xx_tim.o
TIM_GetITStatus                                   Drivers\STM32F0xx_StdPeriph_Driver\src\stm32f0xx_tim.o
TIM_GetPrescaler                                  Drivers\STM32F0xx_StdPeriph_Driver\src\stm32f0xx_tim.o
TIM_ICInit                                        Drivers\STM32F0xx_StdPeriph_Driver\src\stm32f0xx_tim.o
TIM_ICStructInit                                  Drivers\STM32F0xx_StdPeriph_Driver\src\stm32f0xx_tim.o
TIM_ITConfig                                      Drivers\STM32F0xx_StdPeriph_Driver\src\stm32f0xx_tim.o
                                                  src\grbl\stepper.o
TIM_ITRxExternalClockConfig                       Drivers\STM32F0xx_StdPeriph_Driver\src\stm32f0xx_tim.o
TIM_InternalClockConfig                           Drivers\STM32F0xx_StdPeriph_Driver\src\stm32f0xx_tim.o
TIM_OC1FastConfig                                 Drivers\STM32F0xx_StdPeriph_Driver\src\stm32f0xx_tim.o
TIM_OC1Init                                       Drivers\STM32F0xx_StdPeriph_Driver\src\stm32f0xx_tim.o
                                                  src\grbl\spindle_control.o
TIM_OC1NPolarityConfig                            Drivers\STM32F0xx_StdPeriph_Driver\src\stm32f0xx_tim.o
TIM_OC1PolarityConfig                             Drivers\STM32F0xx_StdPeriph_Driver\src\stm32f0xx_tim.o
TIM_OC1PreloadConfig                              Drivers\STM32F0xx_StdPeriph_Driver\src\stm32f0xx_tim.o
                                                  src\grbl\spindle_control.o
TIM_OC2FastConfig                                 Drivers\STM32F0xx_StdPeriph_Driver\src\stm32f0xx_tim.o
TIM_OC2Init                                       Drivers\STM32F0xx_StdPeriph_Driver\src\stm32f0xx_tim.o
TIM_OC2NPolarityConfig                            Drivers\STM32F0xx_StdPeriph_Driver\src\stm32f0xx_tim.o
TIM_OC2PolarityConfig                             Drivers\STM32F0xx_StdPeriph_Driver\src\stm32f0xx_tim.o
TIM_OC2PreloadConfig                              Drivers\STM32F0xx_StdPeriph_Driver\src\stm32f0xx_tim.o
TIM_OC3FastConfig                                 Drivers\STM32F0xx_StdPeriph_Driver\src\stm32f0xx_tim.o
TIM_OC3Init                                       Drivers\STM32F0xx_StdPeriph_Driver\src\stm32f0xx_tim.o
TIM_OC3NPolarityConfig                            Drivers\STM32F0xx_StdPeriph_Driver\src\stm32f0xx_tim.o
TIM_OC3PolarityConfig                             Drivers\STM32F0xx_StdPeriph_Driver\src\stm32f0xx_tim.o
TIM_OC3PreloadConfig                              Drivers\STM32F0xx_StdPeriph_Driver\src\stm32f0xx_tim.o
TIM_OC4FastConfig                                 Drivers\STM32F0xx_StdPeriph_Driver\src\stm32f0xx_tim.o
TIM_OC4Init                                       Drivers\STM32F0xx_StdPeriph_Driver\src\stm32f0xx_tim.o
TIM_OC4PolarityConfig                             Drivers\STM32F0xx_StdPeriph_Driver\src\stm32f0xx_tim.o
TIM_OC4PreloadConfig                              Drivers\STM32F0xx_StdPeriph_Driver\src\stm32f0xx_tim.o
TIM_OCStructInit                                  Drivers\STM32F0xx_StdPeriph_Driver\src\stm32f0xx_tim.o
TIM_PWMIConfig                                    Drivers\STM32F0xx_StdPeriph_Driver\src\stm32f0xx_tim.o
TIM_PrescalerConfig                               Drivers\STM32F0xx_StdPeriph_Driver\src\stm32f0xx_tim.o
TIM_RemapConfig                                   Drivers\STM32F0xx_StdPeriph_Driver\src\stm32f0xx_tim.o
TIM_SelectCCDMA                                   Drivers\STM32F0xx_StdPeriph_Driver\src\stm32f0xx_tim.o
TIM_SelectCOM                                     Drivers\STM32F0xx_StdPeriph_Driver\src\stm32f0xx_tim.o
TIM_SelectHallSensor                              Drivers\STM32F0xx_StdPeriph_Driver\src\stm32f0xx_tim.o
TIM_SelectInputTrigger                            Drivers\STM32F0xx_StdPeriph_Driver\src\stm32f0xx_tim.o
TIM_SelectMasterSlaveMode                         Drivers\STM32F0xx_StdPeriph_Driver\src\stm32f0xx_tim.o
TIM_SelectOCREFClear                              Drivers\STM32F0xx_StdPeriph_Driver\src\stm32f0xx_tim.o
TIM_SelectOCxM                                    Drivers\STM32F0xx_StdPeriph_Driver\src\stm32f0xx_tim.o
TIM_SelectOnePulseMode                            Drivers\STM32F0xx_StdPeriph_Driver\src\stm32f0xx_tim.o
TIM_SelectOutputTrigger                           Drivers\STM32F0xx_StdPeriph_Driver\src\stm32f0xx_tim.o
TIM_SelectSlaveMode                               Drivers\STM32F0xx_StdPeriph_Driver\src\stm32f0xx_tim.o
TIM_SetAutoreload                                 Drivers\STM32F0xx_StdPeriph_Driver\src\stm32f0xx_tim.o
TIM_SetClockDivision                              Drivers\STM32F0xx_StdPeriph_Driver\src\stm32f0xx_tim.o
TIM_SetCompare1                                   Drivers\STM32F0xx_StdPeriph_Driver\src\stm32f0xx_tim.o
TIM_SetCompare2                                   Drivers\STM32F0xx_StdPeriph_Driver\src\stm32f0xx_tim.o
TIM_SetCompare3                                   Drivers\STM32F0xx_StdPeriph_Driver\src\stm32f0xx_tim.o
TIM_SetCompare4                                   Drivers\STM32F0xx_StdPeriph_Driver\src\stm32f0xx_tim.o
TIM_SetCounter                                    Drivers\STM32F0xx_StdPeriph_Driver\src\stm32f0xx_tim.o
TIM_SetIC1Prescaler                               Drivers\STM32F0xx_StdPeriph_Driver\src\stm32f0xx_tim.o
TIM_SetIC2Prescaler                               Drivers\STM32F0xx_StdPeriph_Driver\src\stm32f0xx_tim.o
TIM_SetIC3Prescaler                               Drivers\STM32F0xx_StdPeriph_Driver\src\stm32f0xx_tim.o
TIM_SetIC4Prescaler                               Drivers\STM32F0xx_StdPeriph_Driver\src\stm32f0xx_tim.o
TIM_TIxExternalClockConfig                        Drivers\STM32F0xx_StdPeriph_Driver\src\stm32f0xx_tim.o
TIM_TimeBaseInit                                  Drivers\STM32F0xx_StdPeriph_Driver\src\stm32f0xx_tim.o
                                                  src\grbl\stepper.o
                                                  src\grbl\spindle_control.o
TIM_TimeBaseStructInit                            Drivers\STM32F0xx_StdPeriph_Driver\src\stm32f0xx_tim.o
                                                  src\grbl\spindle_control.o
TIM_UpdateDisableConfig                           Drivers\STM32F0xx_StdPeriph_Driver\src\stm32f0xx_tim.o
TIM_UpdateRequestConfig                           Drivers\STM32F0xx_StdPeriph_Driver\src\stm32f0xx_tim.o
TS_IRQHandler                                     src\startup_stm32f051.o
USART1_Configuration                              src\main.o
USART1_IRQHandler                                 src\grbl\serial.o
USART2_IRQHandler                                 src\startup_stm32f051.o
USART_AddressDetectionConfig                      Drivers\STM32F0xx_StdPeriph_Driver\src\stm32f0xx_usart.o
USART_AutoBaudRateCmd                             Drivers\STM32F0xx_StdPeriph_Driver\src\stm32f0xx_usart.o
USART_AutoBaudRateConfig                          Drivers\STM32F0xx_StdPeriph_Driver\src\stm32f0xx_usart.o
USART_ClearFlag                                   Drivers\STM32F0xx_StdPeriph_Driver\src\stm32f0xx_usart.o
USART_ClearITPendingBit                           Drivers\STM32F0xx_StdPeriph_Driver\src\stm32f0xx_usart.o
USART_ClockInit                                   Drivers\STM32F0xx_StdPeriph_Driver\src\stm32f0xx_usart.o
USART_ClockStructInit                             Drivers\STM32F0xx_StdPeriph_Driver\src\stm32f0xx_usart.o
USART_Cmd                                         Drivers\STM32F0xx_StdPeriph_Driver\src\stm32f0xx_usart.o
                                                  src\main.o
USART_DECmd                                       Drivers\STM32F0xx_StdPeriph_Driver\src\stm32f0xx_usart.o
USART_DEPolarityConfig                            Drivers\STM32F0xx_StdPeriph_Driver\src\stm32f0xx_usart.o
USART_DMACmd                                      Drivers\STM32F0xx_StdPeriph_Driver\src\stm32f0xx_usart.o
USART_DMAReceptionErrorConfig                     Drivers\STM32F0xx_StdPeriph_Driver\src\stm32f0xx_usart.o
USART_DataInvCmd                                  Drivers\STM32F0xx_StdPeriph_Driver\src\stm32f0xx_usart.o
USART_DeInit                                      Drivers\STM32F0xx_StdPeriph_Driver\src\stm32f0xx_usart.o
USART_DirectionModeCmd                            Drivers\STM32F0xx_StdPeriph_Driver\src\stm32f0xx_usart.o
USART_GetFlagStatus                               Drivers\STM32F0xx_StdPeriph_Driver\src\stm32f0xx_usart.o
USART_GetITStatus                                 Drivers\STM32F0xx_StdPeriph_Driver\src\stm32f0xx_usart.o
USART_HalfDuplexCmd                               Drivers\STM32F0xx_StdPeriph_Driver\src\stm32f0xx_usart.o
USART_ITConfig                                    Drivers\STM32F0xx_StdPeriph_Driver\src\stm32f0xx_usart.o
                                                  src\main.o
USART_Init                                        Drivers\STM32F0xx_StdPeriph_Driver\src\stm32f0xx_usart.o
                                                  src\main.o
USART_InvPinCmd                                   Drivers\STM32F0xx_StdPeriph_Driver\src\stm32f0xx_usart.o
USART_IrDACmd                                     Drivers\STM32F0xx_StdPeriph_Driver\src\stm32f0xx_usart.o
USART_IrDAConfig                                  Drivers\STM32F0xx_StdPeriph_Driver\src\stm32f0xx_usart.o
USART_LINBreakDetectLengthConfig                  Drivers\STM32F0xx_StdPeriph_Driver\src\stm32f0xx_usart.o
USART_LINCmd                                      Drivers\STM32F0xx_StdPeriph_Driver\src\stm32f0xx_usart.o
USART_MSBFirstCmd                                 Drivers\STM32F0xx_StdPeriph_Driver\src\stm32f0xx_usart.o
USART_MuteModeCmd                                 Drivers\STM32F0xx_StdPeriph_Driver\src\stm32f0xx_usart.o
USART_MuteModeWakeUpConfig                        Drivers\STM32F0xx_StdPeriph_Driver\src\stm32f0xx_usart.o
USART_OneBitMethodCmd                             Drivers\STM32F0xx_StdPeriph_Driver\src\stm32f0xx_usart.o
USART_OverSampling8Cmd                            Drivers\STM32F0xx_StdPeriph_Driver\src\stm32f0xx_usart.o
USART_OverrunDetectionConfig                      Drivers\STM32F0xx_StdPeriph_Driver\src\stm32f0xx_usart.o
USART_ReceiveData                                 Drivers\STM32F0xx_StdPeriph_Driver\src\stm32f0xx_usart.o
USART_ReceiverTimeOutCmd                          Drivers\STM32F0xx_StdPeriph_Driver\src\stm32f0xx_usart.o
USART_RequestCmd                                  Drivers\STM32F0xx_StdPeriph_Driver\src\stm32f0xx_usart.o
USART_STOPModeCmd                                 Drivers\STM32F0xx_StdPeriph_Driver\src\stm32f0xx_usart.o
USART_SWAPPinCmd                                  Drivers\STM32F0xx_StdPeriph_Driver\src\stm32f0xx_usart.o
USART_SendData                                    Drivers\STM32F0xx_StdPeriph_Driver\src\stm32f0xx_usart.o
                                                  src\grbl\serial.o
USART_SetAddress                                  Drivers\STM32F0xx_StdPeriph_Driver\src\stm32f0xx_usart.o
USART_SetAutoRetryCount                           Drivers\STM32F0xx_StdPeriph_Driver\src\stm32f0xx_usart.o
USART_SetBlockLength                              Drivers\STM32F0xx_StdPeriph_Driver\src\stm32f0xx_usart.o
USART_SetDEAssertionTime                          Drivers\STM32F0xx_StdPeriph_Driver\src\stm32f0xx_usart.o
USART_SetDEDeassertionTime                        Drivers\STM32F0xx_StdPeriph_Driver\src\stm32f0xx_usart.o
USART_SetGuardTime                                Drivers\STM32F0xx_StdPeriph_Driver\src\stm32f0xx_usart.o
USART_SetPrescaler                                Drivers\STM32F0xx_StdPeriph_Driver\src\stm32f0xx_usart.o
USART_SetReceiverTimeOut                          Drivers\STM32F0xx_StdPeriph_Driver\src\stm32f0xx_usart.o
USART_SmartCardCmd                                Drivers\STM32F0xx_StdPeriph_Driver\src\stm32f0xx_usart.o
USART_SmartCardNACKCmd                            Drivers\STM32F0xx_StdPeriph_Driver\src\stm32f0xx_usart.o
USART_StopModeWakeUpSourceConfig                  Drivers\STM32F0xx_StdPeriph_Driver\src\stm32f0xx_usart.o
USART_StructInit                                  Drivers\STM32F0xx_StdPeriph_Driver\src\stm32f0xx_usart.o
WWDG_ClearFlag                                    Drivers\STM32F0xx_StdPeriph_Driver\src\stm32f0xx_wwdg.o
WWDG_DeInit                                       Drivers\STM32F0xx_StdPeriph_Driver\src\stm32f0xx_wwdg.o
WWDG_Enable                                       Drivers\STM32F0xx_StdPeriph_Driver\src\stm32f0xx_wwdg.o
WWDG_EnableIT                                     Drivers\STM32F0xx_StdPeriph_Driver\src\stm32f0xx_wwdg.o
WWDG_GetFlagStatus                                Drivers\STM32F0xx_StdPeriph_Driver\src\stm32f0xx_wwdg.o
WWDG_IRQHandler                                   src\startup_stm32f051.o
WWDG_SetCounter                                   Drivers\STM32F0xx_StdPeriph_Driver\src\stm32f0xx_wwdg.o
WWDG_SetPrescaler                                 Drivers\STM32F0xx_StdPeriph_Driver\src\stm32f0xx_wwdg.o
WWDG_SetWindowValue                               Drivers\STM32F0xx_StdPeriph_Driver\src\stm32f0xx_wwdg.o
__aeabi_cdcmpeq                                   c:/program files (x86)/atollic/truestudio for arm 8.0.0/armtools/bin/../lib/gcc/arm-atollic-eabi/6.3.1/armv6-m\libgcc.a(_arm_cmpdf2.o)
__aeabi_cdcmple                                   c:/program files (x86)/atollic/truestudio for arm 8.0.0/armtools/bin/../lib/gcc/arm-atollic-eabi/6.3.1/armv6-m\libgcc.a(_arm_cmpdf2.o)
__aeabi_cdrcmple                                  c:/program files (x86)/atollic/truestudio for arm 8.0.0/armtools/bin/../lib/gcc/arm-atollic-eabi/6.3.1/armv6-m\libgcc.a(_arm_cmpdf2.o)
__aeabi_cfcmpeq                                   c:/program files (x86)/atollic/truestudio for arm 8.0.0/armtools/bin/../lib/gcc/arm-atollic-eabi/6.3.1/armv6-m\libgcc.a(_arm_cmpsf2.o)
__aeabi_cfcmple                                   c:/program files (x86)/atollic/truestudio for arm 8.0.0/armtools/bin/../lib/gcc/arm-atollic-eabi/6.3.1/armv6-m\libgcc.a(_arm_cmpsf2.o)
__aeabi_cfrcmple                                  c:/program files (x86)/atollic/truestudio for arm 8.0.0/armtools/bin/../lib/gcc/arm-atollic-eabi/6.3.1/armv6-m\libgcc.a(_arm_cmpsf2.o)
__aeabi_d2f                                       c:/program files (x86)/atollic/truestudio for arm 8.0.0/armtools/bin/../lib/gcc/arm-atollic-eabi/6.3.1/armv6-m\libgcc.a(truncdfsf2.o)
                                                  c:/program files (x86)/atollic/truestudio for arm 8.0.0/armtools/bin/../lib/gcc/arm-atollic-eabi/6.3.1/../../../../arm-atollic-eabi/lib/armv6-m\libm.a(lib_a-wf_sqrt.o)
                                                  src\grbl\motion_control.o
__aeabi_d2iz                                      c:/program files (x86)/atollic/truestudio for arm 8.0.0/armtools/bin/../lib/gcc/arm-atollic-eabi/6.3.1/armv6-m\libgcc.a(fixdfsi.o)
                                                  c:/program files (x86)/atollic/truestudio for arm 8.0.0/armtools/bin/../lib/gcc/arm-atollic-eabi/6.3.1/armv6-m\libgcc.a(_fixunsdfsi.o)
                                                  c:/program files (x86)/atollic/truestudio for arm 8.0.0/armtools/bin/../lib/gcc/arm-atollic-eabi/6.3.1/../../../../arm-atollic-eabi/lib/armv6-m\libm.a(lib_a-s_lround.o)
                                                  src\grbl\gcode.o
__aeabi_d2uiz                                     c:/program files (x86)/atollic/truestudio for arm 8.0.0/armtools/bin/../lib/gcc/arm-atollic-eabi/6.3.1/armv6-m\libgcc.a(_fixunsdfsi.o)
                                                  src\grbl\system.o
                                                  src\grbl\settings.o
                                                  src\grbl\gcode.o
__aeabi_dadd                                      c:/program files (x86)/atollic/truestudio for arm 8.0.0/armtools/bin/../lib/gcc/arm-atollic-eabi/6.3.1/armv6-m\libgcc.a(adddf3.o)
                                                  c:/program files (x86)/atollic/truestudio for arm 8.0.0/armtools/bin/../lib/gcc/arm-atollic-eabi/6.3.1/../../../../arm-atollic-eabi/lib/armv6-m\libm.a(lib_a-s_trunc.o)
                                                  src\grbl\motion_control.o
__aeabi_dcmpeq                                    c:/program files (x86)/atollic/truestudio for arm 8.0.0/armtools/bin/../lib/gcc/arm-atollic-eabi/6.3.1/armv6-m\libgcc.a(_arm_cmpdf2.o)
__aeabi_dcmpge                                    c:/program files (x86)/atollic/truestudio for arm 8.0.0/armtools/bin/../lib/gcc/arm-atollic-eabi/6.3.1/armv6-m\libgcc.a(_arm_cmpdf2.o)
                                                  c:/program files (x86)/atollic/truestudio for arm 8.0.0/armtools/bin/../lib/gcc/arm-atollic-eabi/6.3.1/armv6-m\libgcc.a(_fixunsdfsi.o)
                                                  src\grbl\motion_control.o
__aeabi_dcmpgt                                    c:/program files (x86)/atollic/truestudio for arm 8.0.0/armtools/bin/../lib/gcc/arm-atollic-eabi/6.3.1/armv6-m\libgcc.a(_arm_cmpdf2.o)
__aeabi_dcmple                                    c:/program files (x86)/atollic/truestudio for arm 8.0.0/armtools/bin/../lib/gcc/arm-atollic-eabi/6.3.1/armv6-m\libgcc.a(_arm_cmpdf2.o)
                                                  src\grbl\motion_control.o
__aeabi_dcmplt                                    c:/program files (x86)/atollic/truestudio for arm 8.0.0/armtools/bin/../lib/gcc/arm-atollic-eabi/6.3.1/armv6-m\libgcc.a(_arm_cmpdf2.o)
__aeabi_ddiv                                      c:/program files (x86)/atollic/truestudio for arm 8.0.0/armtools/bin/../lib/gcc/arm-atollic-eabi/6.3.1/armv6-m\libgcc.a(divdf3.o)
                                                  c:/program files (x86)/atollic/truestudio for arm 8.0.0/armtools/bin/../lib/gcc/arm-atollic-eabi/6.3.1/../../../../arm-atollic-eabi/lib/armv6-m\libm.a(lib_a-wf_sqrt.o)
__aeabi_dsub                                      c:/program files (x86)/atollic/truestudio for arm 8.0.0/armtools/bin/../lib/gcc/arm-atollic-eabi/6.3.1/armv6-m\libgcc.a(subdf3.o)
                                                  c:/program files (x86)/atollic/truestudio for arm 8.0.0/armtools/bin/../lib/gcc/arm-atollic-eabi/6.3.1/armv6-m\libgcc.a(_fixunsdfsi.o)
                                                  src\grbl\motion_control.o
__aeabi_f2d                                       c:/program files (x86)/atollic/truestudio for arm 8.0.0/armtools/bin/../lib/gcc/arm-atollic-eabi/6.3.1/armv6-m\libgcc.a(extendsfdf2.o)
                                                  c:/program files (x86)/atollic/truestudio for arm 8.0.0/armtools/bin/../lib/gcc/arm-atollic-eabi/6.3.1/../../../../arm-atollic-eabi/lib/armv6-m\libm.a(lib_a-wf_sqrt.o)
                                                  src\grbl\system.o
                                                  src\grbl\settings.o
                                                  src\grbl\planner.o
                                                  src\grbl\motion_control.o
                                                  src\grbl\limits.o
                                                  src\grbl\gcode.o
__aeabi_f2iz                                      c:/program files (x86)/atollic/truestudio for arm 8.0.0/armtools/bin/../lib/gcc/arm-atollic-eabi/6.3.1/armv6-m\libgcc.a(fixsfsi.o)
                                                  c:/program files (x86)/atollic/truestudio for arm 8.0.0/armtools/bin/../lib/gcc/arm-atollic-eabi/6.3.1/armv6-m\libgcc.a(_fixunssfsi.o)
                                                  c:/program files (x86)/atollic/truestudio for arm 8.0.0/armtools/bin/../lib/gcc/arm-atollic-eabi/6.3.1/../../../../arm-atollic-eabi/lib/armv6-m\libm.a(lib_a-kf_sin.o)
                                                  c:/program files (x86)/atollic/truestudio for arm 8.0.0/armtools/bin/../lib/gcc/arm-atollic-eabi/6.3.1/../../../../arm-atollic-eabi/lib/armv6-m\libm.a(lib_a-kf_rem_pio2.o)
                                                  c:/program files (x86)/atollic/truestudio for arm 8.0.0/armtools/bin/../lib/gcc/arm-atollic-eabi/6.3.1/../../../../arm-atollic-eabi/lib/armv6-m\libm.a(lib_a-kf_cos.o)
                                                  c:/program files (x86)/atollic/truestudio for arm 8.0.0/armtools/bin/../lib/gcc/arm-atollic-eabi/6.3.1/../../../../arm-atollic-eabi/lib/armv6-m\libm.a(lib_a-ef_rem_pio2.o)
                                                  src\grbl\print.o
__aeabi_f2uiz                                     c:/program files (x86)/atollic/truestudio for arm 8.0.0/armtools/bin/../lib/gcc/arm-atollic-eabi/6.3.1/armv6-m\libgcc.a(_fixunssfsi.o)
                                                  src\grbl\system.o
                                                  src\grbl\stepper.o
                                                  src\grbl\spindle_control.o
                                                  src\grbl\nuts_bolts.o
                                                  src\grbl\motion_control.o
                                                  src\grbl\gcode.o
__aeabi_fadd                                      c:/program files (x86)/atollic/truestudio for arm 8.0.0/armtools/bin/../lib/gcc/arm-atollic-eabi/6.3.1/armv6-m\libgcc.a(addsf3.o)
                                                  c:/program files (x86)/atollic/truestudio for arm 8.0.0/armtools/bin/../lib/gcc/arm-atollic-eabi/6.3.1/../../../../arm-atollic-eabi/lib/armv6-m\libm.a(lib_a-sf_scalbn.o)
                                                  c:/program files (x86)/atollic/truestudio for arm 8.0.0/armtools/bin/../lib/gcc/arm-atollic-eabi/6.3.1/../../../../arm-atollic-eabi/lib/armv6-m\libm.a(lib_a-sf_atan.o)
                                                  c:/program files (x86)/atollic/truestudio for arm 8.0.0/armtools/bin/../lib/gcc/arm-atollic-eabi/6.3.1/../../../../arm-atollic-eabi/lib/armv6-m\libm.a(lib_a-kf_sin.o)
                                                  c:/program files (x86)/atollic/truestudio for arm 8.0.0/armtools/bin/../lib/gcc/arm-atollic-eabi/6.3.1/../../../../arm-atollic-eabi/lib/armv6-m\libm.a(lib_a-kf_rem_pio2.o)
                                                  c:/program files (x86)/atollic/truestudio for arm 8.0.0/armtools/bin/../lib/gcc/arm-atollic-eabi/6.3.1/../../../../arm-atollic-eabi/lib/armv6-m\libm.a(lib_a-kf_cos.o)
                                                  c:/program files (x86)/atollic/truestudio for arm 8.0.0/armtools/bin/../lib/gcc/arm-atollic-eabi/6.3.1/../../../../arm-atollic-eabi/lib/armv6-m\libm.a(lib_a-ef_sqrt.o)
                                                  c:/program files (x86)/atollic/truestudio for arm 8.0.0/armtools/bin/../lib/gcc/arm-atollic-eabi/6.3.1/../../../../arm-atollic-eabi/lib/armv6-m\libm.a(lib_a-ef_rem_pio2.o)
                                                  c:/program files (x86)/atollic/truestudio for arm 8.0.0/armtools/bin/../lib/gcc/arm-atollic-eabi/6.3.1/../../../../arm-atollic-eabi/lib/armv6-m\libm.a(lib_a-ef_atan2.o)
                                                  c:/program files (x86)/atollic/truestudio for arm 8.0.0/armtools/bin/../lib/gcc/arm-atollic-eabi/6.3.1/../../../../arm-atollic-eabi/lib/armv6-m\libm.a(lib_a-sf_round.o)
                                                  c:/program files (x86)/atollic/truestudio for arm 8.0.0/armtools/bin/../lib/gcc/arm-atollic-eabi/6.3.1/../../../../arm-atollic-eabi/lib/armv6-m\libm.a(lib_a-sf_floor.o)
                                                  c:/program files (x86)/atollic/truestudio for arm 8.0.0/armtools/bin/../lib/gcc/arm-atollic-eabi/6.3.1/../../../../arm-atollic-eabi/lib/armv6-m\libm.a(lib_a-sf_ceil.o)
                                                  src\grbl\stepper.o
                                                  src\grbl\report.o
                                                  src\grbl\print.o
                                                  src\grbl\planner.o
                                                  src\grbl\nuts_bolts.o
                                                  src\grbl\motion_control.o
                                                  src\grbl\limits.o
                                                  src\grbl\gcode.o
__aeabi_fcmpeq                                    c:/program files (x86)/atollic/truestudio for arm 8.0.0/armtools/bin/../lib/gcc/arm-atollic-eabi/6.3.1/armv6-m\libgcc.a(_arm_cmpsf2.o)
                                                  c:/program files (x86)/atollic/truestudio for arm 8.0.0/armtools/bin/../lib/gcc/arm-atollic-eabi/6.3.1/../../../../arm-atollic-eabi/lib/armv6-m\libm.a(lib_a-kf_rem_pio2.o)
                                                  c:/program files (x86)/atollic/truestudio for arm 8.0.0/armtools/bin/../lib/gcc/arm-atollic-eabi/6.3.1/../../../../arm-atollic-eabi/lib/armv6-m\libm.a(lib_a-ef_rem_pio2.o)
                                                  src\grbl\stepper.o
                                                  src\grbl\spindle_control.o
                                                  src\grbl\planner.o
                                                  src\grbl\nuts_bolts.o
                                                  src\grbl\gcode.o
__aeabi_fcmpge                                    c:/program files (x86)/atollic/truestudio for arm 8.0.0/armtools/bin/../lib/gcc/arm-atollic-eabi/6.3.1/armv6-m\libgcc.a(_arm_cmpsf2.o)
                                                  c:/program files (x86)/atollic/truestudio for arm 8.0.0/armtools/bin/../lib/gcc/arm-atollic-eabi/6.3.1/armv6-m\libgcc.a(_fixunssfsi.o)
                                                  c:/program files (x86)/atollic/truestudio for arm 8.0.0/armtools/bin/../lib/gcc/arm-atollic-eabi/6.3.1/../../../../arm-atollic-eabi/lib/armv6-m\libm.a(lib_a-kf_rem_pio2.o)
                                                  src\grbl\spindle_control.o
__aeabi_fcmpgt                                    c:/program files (x86)/atollic/truestudio for arm 8.0.0/armtools/bin/../lib/gcc/arm-atollic-eabi/6.3.1/armv6-m\libgcc.a(_arm_cmpsf2.o)
                                                  c:/program files (x86)/atollic/truestudio for arm 8.0.0/armtools/bin/../lib/gcc/arm-atollic-eabi/6.3.1/../../../../arm-atollic-eabi/lib/armv6-m\libm.a(lib_a-sf_atan.o)
                                                  c:/program files (x86)/atollic/truestudio for arm 8.0.0/armtools/bin/../lib/gcc/arm-atollic-eabi/6.3.1/../../../../arm-atollic-eabi/lib/armv6-m\libm.a(lib_a-sf_floor.o)
                                                  c:/program files (x86)/atollic/truestudio for arm 8.0.0/armtools/bin/../lib/gcc/arm-atollic-eabi/6.3.1/../../../../arm-atollic-eabi/lib/armv6-m\libm.a(lib_a-sf_ceil.o)
                                                  src\grbl\system.o
                                                  src\grbl\stepper.o
                                                  src\grbl\planner.o
                                                  src\grbl\nuts_bolts.o
                                                  src\grbl\gcode.o
__aeabi_fcmple                                    c:/program files (x86)/atollic/truestudio for arm 8.0.0/armtools/bin/../lib/gcc/arm-atollic-eabi/6.3.1/armv6-m\libgcc.a(_arm_cmpsf2.o)
                                                  src\grbl\stepper.o
                                                  src\grbl\spindle_control.o
__aeabi_fcmplt                                    c:/program files (x86)/atollic/truestudio for arm 8.0.0/armtools/bin/../lib/gcc/arm-atollic-eabi/6.3.1/armv6-m\libgcc.a(_arm_cmpsf2.o)
                                                  c:/program files (x86)/atollic/truestudio for arm 8.0.0/armtools/bin/../lib/gcc/arm-atollic-eabi/6.3.1/../../../../arm-atollic-eabi/lib/armv6-m\libm.a(lib_a-wf_sqrt.o)
                                                  src\grbl\system.o
                                                  src\grbl\stepper.o
                                                  src\grbl\settings.o
                                                  src\grbl\print.o
                                                  src\grbl\planner.o
                                                  src\grbl\limits.o
                                                  src\grbl\gcode.o
__aeabi_fcmpun                                    c:/program files (x86)/atollic/truestudio for arm 8.0.0/armtools/bin/../lib/gcc/arm-atollic-eabi/6.3.1/armv6-m\libgcc.a(unordsf2.o)
                                                  c:/program files (x86)/atollic/truestudio for arm 8.0.0/armtools/bin/../lib/gcc/arm-atollic-eabi/6.3.1/../../../../arm-atollic-eabi/lib/armv6-m\libm.a(lib_a-wf_sqrt.o)
__aeabi_fdiv                                      c:/program files (x86)/atollic/truestudio for arm 8.0.0/armtools/bin/../lib/gcc/arm-atollic-eabi/6.3.1/armv6-m\libgcc.a(divsf3.o)
                                                  c:/program files (x86)/atollic/truestudio for arm 8.0.0/armtools/bin/../lib/gcc/arm-atollic-eabi/6.3.1/../../../../arm-atollic-eabi/lib/armv6-m\libm.a(lib_a-sf_atan.o)
                                                  c:/program files (x86)/atollic/truestudio for arm 8.0.0/armtools/bin/../lib/gcc/arm-atollic-eabi/6.3.1/../../../../arm-atollic-eabi/lib/armv6-m\libm.a(lib_a-ef_sqrt.o)
                                                  c:/program files (x86)/atollic/truestudio for arm 8.0.0/armtools/bin/../lib/gcc/arm-atollic-eabi/6.3.1/../../../../arm-atollic-eabi/lib/armv6-m\libm.a(lib_a-ef_atan2.o)
                                                  src\grbl\system.o
                                                  src\grbl\stepper.o
                                                  src\grbl\spindle_control.o
                                                  src\grbl\report.o
                                                  src\grbl\planner.o
                                                  src\grbl\nuts_bolts.o
                                                  src\grbl\motion_control.o
                                                  src\grbl\gcode.o
__aeabi_fmul                                      c:/program files (x86)/atollic/truestudio for arm 8.0.0/armtools/bin/../lib/gcc/arm-atollic-eabi/6.3.1/armv6-m\libgcc.a(mulsf3.o)
                                                  c:/program files (x86)/atollic/truestudio for arm 8.0.0/armtools/bin/../lib/gcc/arm-atollic-eabi/6.3.1/../../../../arm-atollic-eabi/lib/armv6-m\libm.a(lib_a-sf_scalbn.o)
                                                  c:/program files (x86)/atollic/truestudio for arm 8.0.0/armtools/bin/../lib/gcc/arm-atollic-eabi/6.3.1/../../../../arm-atollic-eabi/lib/armv6-m\libm.a(lib_a-sf_atan.o)
                                                  c:/program files (x86)/atollic/truestudio for arm 8.0.0/armtools/bin/../lib/gcc/arm-atollic-eabi/6.3.1/../../../../arm-atollic-eabi/lib/armv6-m\libm.a(lib_a-kf_sin.o)
                                                  c:/program files (x86)/atollic/truestudio for arm 8.0.0/armtools/bin/../lib/gcc/arm-atollic-eabi/6.3.1/../../../../arm-atollic-eabi/lib/armv6-m\libm.a(lib_a-kf_rem_pio2.o)
                                                  c:/program files (x86)/atollic/truestudio for arm 8.0.0/armtools/bin/../lib/gcc/arm-atollic-eabi/6.3.1/../../../../arm-atollic-eabi/lib/armv6-m\libm.a(lib_a-kf_cos.o)
                                                  c:/program files (x86)/atollic/truestudio for arm 8.0.0/armtools/bin/../lib/gcc/arm-atollic-eabi/6.3.1/../../../../arm-atollic-eabi/lib/armv6-m\libm.a(lib_a-ef_sqrt.o)
                                                  c:/program files (x86)/atollic/truestudio for arm 8.0.0/armtools/bin/../lib/gcc/arm-atollic-eabi/6.3.1/../../../../arm-atollic-eabi/lib/armv6-m\libm.a(lib_a-ef_rem_pio2.o)
                                                  src\grbl\stepper.o
                                                  src\grbl\spindle_control.o
                                                  src\grbl\settings.o
                                                  src\grbl\print.o
                                                  src\grbl\planner.o
                                                  src\grbl\nuts_bolts.o
                                                  src\grbl\motion_control.o
                                                  src\grbl\limits.o
                                                  src\grbl\gcode.o
__aeabi_fsub                                      c:/program files (x86)/atollic/truestudio for arm 8.0.0/armtools/bin/../lib/gcc/arm-atollic-eabi/6.3.1/armv6-m\libgcc.a(subsf3.o)
                                                  c:/program files (x86)/atollic/truestudio for arm 8.0.0/armtools/bin/../lib/gcc/arm-atollic-eabi/6.3.1/armv6-m\libgcc.a(_fixunssfsi.o)
                                                  c:/program files (x86)/atollic/truestudio for arm 8.0.0/armtools/bin/../lib/gcc/arm-atollic-eabi/6.3.1/../../../../arm-atollic-eabi/lib/armv6-m\libm.a(lib_a-sf_atan.o)
                                                  c:/program files (x86)/atollic/truestudio for arm 8.0.0/armtools/bin/../lib/gcc/arm-atollic-eabi/6.3.1/../../../../arm-atollic-eabi/lib/armv6-m\libm.a(lib_a-kf_sin.o)
                                                  c:/program files (x86)/atollic/truestudio for arm 8.0.0/armtools/bin/../lib/gcc/arm-atollic-eabi/6.3.1/../../../../arm-atollic-eabi/lib/armv6-m\libm.a(lib_a-kf_rem_pio2.o)
                                                  c:/program files (x86)/atollic/truestudio for arm 8.0.0/armtools/bin/../lib/gcc/arm-atollic-eabi/6.3.1/../../../../arm-atollic-eabi/lib/armv6-m\libm.a(lib_a-kf_cos.o)
                                                  c:/program files (x86)/atollic/truestudio for arm 8.0.0/armtools/bin/../lib/gcc/arm-atollic-eabi/6.3.1/../../../../arm-atollic-eabi/lib/armv6-m\libm.a(lib_a-ef_sqrt.o)
                                                  c:/program files (x86)/atollic/truestudio for arm 8.0.0/armtools/bin/../lib/gcc/arm-atollic-eabi/6.3.1/../../../../arm-atollic-eabi/lib/armv6-m\libm.a(lib_a-ef_rem_pio2.o)
                                                  c:/program files (x86)/atollic/truestudio for arm 8.0.0/armtools/bin/../lib/gcc/arm-atollic-eabi/6.3.1/../../../../arm-atollic-eabi/lib/armv6-m\libm.a(lib_a-ef_atan2.o)
                                                  c:/program files (x86)/atollic/truestudio for arm 8.0.0/armtools/bin/../lib/gcc/arm-atollic-eabi/6.3.1/../../../../arm-atollic-eabi/lib/armv6-m\libm.a(lib_a-sf_sin.o)
                                                  c:/program files (x86)/atollic/truestudio for arm 8.0.0/armtools/bin/../lib/gcc/arm-atollic-eabi/6.3.1/../../../../arm-atollic-eabi/lib/armv6-m\libm.a(lib_a-sf_cos.o)
                                                  src\grbl\stepper.o
                                                  src\grbl\spindle_control.o
                                                  src\grbl\report.o
                                                  src\grbl\planner.o
                                                  src\grbl\motion_control.o
                                                  src\grbl\gcode.o
__aeabi_i2f                                       c:/program files (x86)/atollic/truestudio for arm 8.0.0/armtools/bin/../lib/gcc/arm-atollic-eabi/6.3.1/armv6-m\libgcc.a(floatsisf.o)
                                                  c:/program files (x86)/atollic/truestudio for arm 8.0.0/armtools/bin/../lib/gcc/arm-atollic-eabi/6.3.1/../../../../arm-atollic-eabi/lib/armv6-m\libm.a(lib_a-kf_rem_pio2.o)
                                                  c:/program files (x86)/atollic/truestudio for arm 8.0.0/armtools/bin/../lib/gcc/arm-atollic-eabi/6.3.1/../../../../arm-atollic-eabi/lib/armv6-m\libm.a(lib_a-ef_rem_pio2.o)
                                                  src\grbl\system.o
                                                  src\grbl\spindle_control.o
                                                  src\grbl\planner.o
                                                  src\grbl\motion_control.o
                                                  src\grbl\gcode.o
__aeabi_idiv                                      c:/program files (x86)/atollic/truestudio for arm 8.0.0/armtools/bin/../lib/gcc/arm-atollic-eabi/6.3.1/armv6-m\libgcc.a(_divsi3.o)
                                                  src\tiny_printf.o
__aeabi_idiv0                                     c:/program files (x86)/atollic/truestudio for arm 8.0.0/armtools/bin/../lib/gcc/arm-atollic-eabi/6.3.1/armv6-m\libgcc.a(_dvmd_tls.o)
                                                  c:/program files (x86)/atollic/truestudio for arm 8.0.0/armtools/bin/../lib/gcc/arm-atollic-eabi/6.3.1/armv6-m\libgcc.a(_divsi3.o)
                                                  c:/program files (x86)/atollic/truestudio for arm 8.0.0/armtools/bin/../lib/gcc/arm-atollic-eabi/6.3.1/armv6-m\libgcc.a(_udivsi3.o)
__aeabi_idivmod                                   c:/program files (x86)/atollic/truestudio for arm 8.0.0/armtools/bin/../lib/gcc/arm-atollic-eabi/6.3.1/armv6-m\libgcc.a(_divsi3.o)
__aeabi_ldiv0                                     c:/program files (x86)/atollic/truestudio for arm 8.0.0/armtools/bin/../lib/gcc/arm-atollic-eabi/6.3.1/armv6-m\libgcc.a(_dvmd_tls.o)
__aeabi_ui2f                                      c:/program files (x86)/atollic/truestudio for arm 8.0.0/armtools/bin/../lib/gcc/arm-atollic-eabi/6.3.1/armv6-m\libgcc.a(floatunsisf.o)
                                                  src\grbl\stepper.o
                                                  src\grbl\nuts_bolts.o
                                                  src\grbl\limits.o
__aeabi_uidiv                                     c:/program files (x86)/atollic/truestudio for arm 8.0.0/armtools/bin/../lib/gcc/arm-atollic-eabi/6.3.1/armv6-m\libgcc.a(_udivsi3.o)
                                                  c:/program files (x86)/atollic/truestudio for arm 8.0.0/armtools/bin/../lib/gcc/arm-atollic-eabi/6.3.1/armv6-m\libgcc.a(divdf3.o)
                                                  src\tiny_printf.o
                                                  src\system_stm32f0xx.o
                                                  src\grbl\stepper.o
                                                  src\grbl\spindle_control.o
                                                  src\grbl\print.o
                                                  src\grbl\gcode.o
                                                  Drivers\STM32F0xx_StdPeriph_Driver\src\stm32f0xx_usart.o
                                                  Drivers\STM32F0xx_StdPeriph_Driver\src\stm32f0xx_spi.o
                                                  Drivers\STM32F0xx_StdPeriph_Driver\src\stm32f0xx_rcc.o
__aeabi_uidivmod                                  c:/program files (x86)/atollic/truestudio for arm 8.0.0/armtools/bin/../lib/gcc/arm-atollic-eabi/6.3.1/armv6-m\libgcc.a(_udivsi3.o)
                                                  c:/program files (x86)/atollic/truestudio for arm 8.0.0/armtools/bin/../lib/gcc/arm-atollic-eabi/6.3.1/armv6-m\libgcc.a(divdf3.o)
                                                  src\tiny_printf.o
                                                  src\grbl\print.o
                                                  Drivers\STM32F0xx_StdPeriph_Driver\src\stm32f0xx_usart.o
__clzsi2                                          c:/program files (x86)/atollic/truestudio for arm 8.0.0/armtools/bin/../lib/gcc/arm-atollic-eabi/6.3.1/armv6-m\libgcc.a(_clzsi2.o)
                                                  c:/program files (x86)/atollic/truestudio for arm 8.0.0/armtools/bin/../lib/gcc/arm-atollic-eabi/6.3.1/armv6-m\libgcc.a(extendsfdf2.o)
                                                  c:/program files (x86)/atollic/truestudio for arm 8.0.0/armtools/bin/../lib/gcc/arm-atollic-eabi/6.3.1/armv6-m\libgcc.a(subdf3.o)
                                                  c:/program files (x86)/atollic/truestudio for arm 8.0.0/armtools/bin/../lib/gcc/arm-atollic-eabi/6.3.1/armv6-m\libgcc.a(divdf3.o)
                                                  c:/program files (x86)/atollic/truestudio for arm 8.0.0/armtools/bin/../lib/gcc/arm-atollic-eabi/6.3.1/armv6-m\libgcc.a(adddf3.o)
                                                  c:/program files (x86)/atollic/truestudio for arm 8.0.0/armtools/bin/../lib/gcc/arm-atollic-eabi/6.3.1/armv6-m\libgcc.a(floatunsisf.o)
                                                  c:/program files (x86)/atollic/truestudio for arm 8.0.0/armtools/bin/../lib/gcc/arm-atollic-eabi/6.3.1/armv6-m\libgcc.a(floatsisf.o)
                                                  c:/program files (x86)/atollic/truestudio for arm 8.0.0/armtools/bin/../lib/gcc/arm-atollic-eabi/6.3.1/armv6-m\libgcc.a(subsf3.o)
                                                  c:/program files (x86)/atollic/truestudio for arm 8.0.0/armtools/bin/../lib/gcc/arm-atollic-eabi/6.3.1/armv6-m\libgcc.a(mulsf3.o)
                                                  c:/program files (x86)/atollic/truestudio for arm 8.0.0/armtools/bin/../lib/gcc/arm-atollic-eabi/6.3.1/armv6-m\libgcc.a(divsf3.o)
                                                  c:/program files (x86)/atollic/truestudio for arm 8.0.0/armtools/bin/../lib/gcc/arm-atollic-eabi/6.3.1/armv6-m\libgcc.a(addsf3.o)
__deregister_frame_info                           c:/program files (x86)/atollic/truestudio for arm 8.0.0/armtools/bin/../lib/gcc/arm-atollic-eabi/6.3.1/armv6-m/crtbegin.o
__divsi3                                          c:/program files (x86)/atollic/truestudio for arm 8.0.0/armtools/bin/../lib/gcc/arm-atollic-eabi/6.3.1/armv6-m\libgcc.a(_divsi3.o)
__dso_handle                                      c:/program files (x86)/atollic/truestudio for arm 8.0.0/armtools/bin/../lib/gcc/arm-atollic-eabi/6.3.1/armv6-m/crtbegin.o
__env                                             src\syscalls.o
__eqdf2                                           c:/program files (x86)/atollic/truestudio for arm 8.0.0/armtools/bin/../lib/gcc/arm-atollic-eabi/6.3.1/armv6-m\libgcc.a(eqdf2.o)
                                                  c:/program files (x86)/atollic/truestudio for arm 8.0.0/armtools/bin/../lib/gcc/arm-atollic-eabi/6.3.1/armv6-m\libgcc.a(_arm_cmpdf2.o)
__eqsf2                                           c:/program files (x86)/atollic/truestudio for arm 8.0.0/armtools/bin/../lib/gcc/arm-atollic-eabi/6.3.1/armv6-m\libgcc.a(eqsf2.o)
                                                  c:/program files (x86)/atollic/truestudio for arm 8.0.0/armtools/bin/../lib/gcc/arm-atollic-eabi/6.3.1/armv6-m\libgcc.a(_arm_cmpsf2.o)
__errno                                           c:/program files (x86)/atollic/truestudio for arm 8.0.0/armtools/bin/../lib/gcc/arm-atollic-eabi/6.3.1/../../../../arm-atollic-eabi/lib/armv6-m\libc_nano.a(lib_a-errno.o)
                                                  c:/program files (x86)/atollic/truestudio for arm 8.0.0/armtools/bin/../lib/gcc/arm-atollic-eabi/6.3.1/../../../../arm-atollic-eabi/lib/armv6-m\libm.a(lib_a-wf_sqrt.o)
__fdlib_version                                   c:/program files (x86)/atollic/truestudio for arm 8.0.0/armtools/bin/../lib/gcc/arm-atollic-eabi/6.3.1/../../../../arm-atollic-eabi/lib/armv6-m\libm.a(lib_a-s_lib_ver.o)
                                                  c:/program files (x86)/atollic/truestudio for arm 8.0.0/armtools/bin/../lib/gcc/arm-atollic-eabi/6.3.1/../../../../arm-atollic-eabi/lib/armv6-m\libm.a(lib_a-wf_sqrt.o)
__fixunsdfsi                                      c:/program files (x86)/atollic/truestudio for arm 8.0.0/armtools/bin/../lib/gcc/arm-atollic-eabi/6.3.1/armv6-m\libgcc.a(_fixunsdfsi.o)
__fixunssfsi                                      c:/program files (x86)/atollic/truestudio for arm 8.0.0/armtools/bin/../lib/gcc/arm-atollic-eabi/6.3.1/armv6-m\libgcc.a(_fixunssfsi.o)
__gedf2                                           c:/program files (x86)/atollic/truestudio for arm 8.0.0/armtools/bin/../lib/gcc/arm-atollic-eabi/6.3.1/armv6-m\libgcc.a(gedf2.o)
                                                  c:/program files (x86)/atollic/truestudio for arm 8.0.0/armtools/bin/../lib/gcc/arm-atollic-eabi/6.3.1/armv6-m\libgcc.a(_arm_cmpdf2.o)
__gesf2                                           c:/program files (x86)/atollic/truestudio for arm 8.0.0/armtools/bin/../lib/gcc/arm-atollic-eabi/6.3.1/armv6-m\libgcc.a(gesf2.o)
                                                  c:/program files (x86)/atollic/truestudio for arm 8.0.0/armtools/bin/../lib/gcc/arm-atollic-eabi/6.3.1/armv6-m\libgcc.a(_arm_cmpsf2.o)
__gnu_thumb1_case_uqi                             c:/program files (x86)/atollic/truestudio for arm 8.0.0/armtools/bin/../lib/gcc/arm-atollic-eabi/6.3.1/armv6-m\libgcc.a(_thumb1_case_uqi.o)
                                                  c:/program files (x86)/atollic/truestudio for arm 8.0.0/armtools/bin/../lib/gcc/arm-atollic-eabi/6.3.1/../../../../arm-atollic-eabi/lib/armv6-m\libm.a(lib_a-kf_rem_pio2.o)
__gtdf2                                           c:/program files (x86)/atollic/truestudio for arm 8.0.0/armtools/bin/../lib/gcc/arm-atollic-eabi/6.3.1/armv6-m\libgcc.a(gedf2.o)
__gtsf2                                           c:/program files (x86)/atollic/truestudio for arm 8.0.0/armtools/bin/../lib/gcc/arm-atollic-eabi/6.3.1/armv6-m\libgcc.a(gesf2.o)
__ieee754_atan2f                                  c:/program files (x86)/atollic/truestudio for arm 8.0.0/armtools/bin/../lib/gcc/arm-atollic-eabi/6.3.1/../../../../arm-atollic-eabi/lib/armv6-m\libm.a(lib_a-ef_atan2.o)
                                                  c:/program files (x86)/atollic/truestudio for arm 8.0.0/armtools/bin/../lib/gcc/arm-atollic-eabi/6.3.1/../../../../arm-atollic-eabi/lib/armv6-m\libm.a(lib_a-wf_atan2.o)
__ieee754_rem_pio2f                               c:/program files (x86)/atollic/truestudio for arm 8.0.0/armtools/bin/../lib/gcc/arm-atollic-eabi/6.3.1/../../../../arm-atollic-eabi/lib/armv6-m\libm.a(lib_a-ef_rem_pio2.o)
                                                  c:/program files (x86)/atollic/truestudio for arm 8.0.0/armtools/bin/../lib/gcc/arm-atollic-eabi/6.3.1/../../../../arm-atollic-eabi/lib/armv6-m\libm.a(lib_a-sf_sin.o)
                                                  c:/program files (x86)/atollic/truestudio for arm 8.0.0/armtools/bin/../lib/gcc/arm-atollic-eabi/6.3.1/../../../../arm-atollic-eabi/lib/armv6-m\libm.a(lib_a-sf_cos.o)
__ieee754_sqrtf                                   c:/program files (x86)/atollic/truestudio for arm 8.0.0/armtools/bin/../lib/gcc/arm-atollic-eabi/6.3.1/../../../../arm-atollic-eabi/lib/armv6-m\libm.a(lib_a-ef_sqrt.o)
                                                  c:/program files (x86)/atollic/truestudio for arm 8.0.0/armtools/bin/../lib/gcc/arm-atollic-eabi/6.3.1/../../../../arm-atollic-eabi/lib/armv6-m\libm.a(lib_a-wf_sqrt.o)
__init_array_end                                  c:/program files (x86)/atollic/truestudio for arm 8.0.0/armtools/bin/../lib/gcc/arm-atollic-eabi/6.3.1/../../../../arm-atollic-eabi/lib/armv6-m\libc_nano.a(lib_a-init.o)
__init_array_start                                c:/program files (x86)/atollic/truestudio for arm 8.0.0/armtools/bin/../lib/gcc/arm-atollic-eabi/6.3.1/../../../../arm-atollic-eabi/lib/armv6-m\libc_nano.a(lib_a-init.o)
__kernel_cosf                                     c:/program files (x86)/atollic/truestudio for arm 8.0.0/armtools/bin/../lib/gcc/arm-atollic-eabi/6.3.1/../../../../arm-atollic-eabi/lib/armv6-m\libm.a(lib_a-kf_cos.o)
                                                  c:/program files (x86)/atollic/truestudio for arm 8.0.0/armtools/bin/../lib/gcc/arm-atollic-eabi/6.3.1/../../../../arm-atollic-eabi/lib/armv6-m\libm.a(lib_a-sf_sin.o)
                                                  c:/program files (x86)/atollic/truestudio for arm 8.0.0/armtools/bin/../lib/gcc/arm-atollic-eabi/6.3.1/../../../../arm-atollic-eabi/lib/armv6-m\libm.a(lib_a-sf_cos.o)
__kernel_rem_pio2f                                c:/program files (x86)/atollic/truestudio for arm 8.0.0/armtools/bin/../lib/gcc/arm-atollic-eabi/6.3.1/../../../../arm-atollic-eabi/lib/armv6-m\libm.a(lib_a-kf_rem_pio2.o)
                                                  c:/program files (x86)/atollic/truestudio for arm 8.0.0/armtools/bin/../lib/gcc/arm-atollic-eabi/6.3.1/../../../../arm-atollic-eabi/lib/armv6-m\libm.a(lib_a-ef_rem_pio2.o)
__kernel_sinf                                     c:/program files (x86)/atollic/truestudio for arm 8.0.0/armtools/bin/../lib/gcc/arm-atollic-eabi/6.3.1/../../../../arm-atollic-eabi/lib/armv6-m\libm.a(lib_a-kf_sin.o)
                                                  c:/program files (x86)/atollic/truestudio for arm 8.0.0/armtools/bin/../lib/gcc/arm-atollic-eabi/6.3.1/../../../../arm-atollic-eabi/lib/armv6-m\libm.a(lib_a-sf_sin.o)
                                                  c:/program files (x86)/atollic/truestudio for arm 8.0.0/armtools/bin/../lib/gcc/arm-atollic-eabi/6.3.1/../../../../arm-atollic-eabi/lib/armv6-m\libm.a(lib_a-sf_cos.o)
__ledf2                                           c:/program files (x86)/atollic/truestudio for arm 8.0.0/armtools/bin/../lib/gcc/arm-atollic-eabi/6.3.1/armv6-m\libgcc.a(ledf2.o)
                                                  c:/program files (x86)/atollic/truestudio for arm 8.0.0/armtools/bin/../lib/gcc/arm-atollic-eabi/6.3.1/armv6-m\libgcc.a(_arm_cmpdf2.o)
__lesf2                                           c:/program files (x86)/atollic/truestudio for arm 8.0.0/armtools/bin/../lib/gcc/arm-atollic-eabi/6.3.1/armv6-m\libgcc.a(lesf2.o)
                                                  c:/program files (x86)/atollic/truestudio for arm 8.0.0/armtools/bin/../lib/gcc/arm-atollic-eabi/6.3.1/armv6-m\libgcc.a(_arm_cmpsf2.o)
__libc_init_array                                 c:/program files (x86)/atollic/truestudio for arm 8.0.0/armtools/bin/../lib/gcc/arm-atollic-eabi/6.3.1/../../../../arm-atollic-eabi/lib/armv6-m\libc_nano.a(lib_a-init.o)
                                                  src\startup_stm32f051.o
__ltdf2                                           c:/program files (x86)/atollic/truestudio for arm 8.0.0/armtools/bin/../lib/gcc/arm-atollic-eabi/6.3.1/armv6-m\libgcc.a(ledf2.o)
__ltsf2                                           c:/program files (x86)/atollic/truestudio for arm 8.0.0/armtools/bin/../lib/gcc/arm-atollic-eabi/6.3.1/armv6-m\libgcc.a(lesf2.o)
__malloc_free_list                                c:/program files (x86)/atollic/truestudio for arm 8.0.0/armtools/bin/../lib/gcc/arm-atollic-eabi/6.3.1/../../../../arm-atollic-eabi/lib/armv6-m\libc_nano.a(lib_a-nano-mallocr.o)
                                                  c:/program files (x86)/atollic/truestudio for arm 8.0.0/armtools/bin/../lib/gcc/arm-atollic-eabi/6.3.1/../../../../arm-atollic-eabi/lib/armv6-m\libc_nano.a(lib_a-nano-freer.o)
__malloc_lock                                     c:/program files (x86)/atollic/truestudio for arm 8.0.0/armtools/bin/../lib/gcc/arm-atollic-eabi/6.3.1/../../../../arm-atollic-eabi/lib/armv6-m\libc_nano.a(lib_a-mlock.o)
                                                  c:/program files (x86)/atollic/truestudio for arm 8.0.0/armtools/bin/../lib/gcc/arm-atollic-eabi/6.3.1/../../../../arm-atollic-eabi/lib/armv6-m\libc_nano.a(lib_a-nano-mallocr.o)
                                                  c:/program files (x86)/atollic/truestudio for arm 8.0.0/armtools/bin/../lib/gcc/arm-atollic-eabi/6.3.1/../../../../arm-atollic-eabi/lib/armv6-m\libc_nano.a(lib_a-nano-freer.o)
__malloc_sbrk_start                               c:/program files (x86)/atollic/truestudio for arm 8.0.0/armtools/bin/../lib/gcc/arm-atollic-eabi/6.3.1/../../../../arm-atollic-eabi/lib/armv6-m\libc_nano.a(lib_a-nano-mallocr.o)
__malloc_unlock                                   c:/program files (x86)/atollic/truestudio for arm 8.0.0/armtools/bin/../lib/gcc/arm-atollic-eabi/6.3.1/../../../../arm-atollic-eabi/lib/armv6-m\libc_nano.a(lib_a-mlock.o)
                                                  c:/program files (x86)/atollic/truestudio for arm 8.0.0/armtools/bin/../lib/gcc/arm-atollic-eabi/6.3.1/../../../../arm-atollic-eabi/lib/armv6-m\libc_nano.a(lib_a-nano-mallocr.o)
                                                  c:/program files (x86)/atollic/truestudio for arm 8.0.0/armtools/bin/../lib/gcc/arm-atollic-eabi/6.3.1/../../../../arm-atollic-eabi/lib/armv6-m\libc_nano.a(lib_a-nano-freer.o)
__nedf2                                           c:/program files (x86)/atollic/truestudio for arm 8.0.0/armtools/bin/../lib/gcc/arm-atollic-eabi/6.3.1/armv6-m\libgcc.a(eqdf2.o)
__nesf2                                           c:/program files (x86)/atollic/truestudio for arm 8.0.0/armtools/bin/../lib/gcc/arm-atollic-eabi/6.3.1/armv6-m\libgcc.a(eqsf2.o)
__preinit_array_end                               c:/program files (x86)/atollic/truestudio for arm 8.0.0/armtools/bin/../lib/gcc/arm-atollic-eabi/6.3.1/../../../../arm-atollic-eabi/lib/armv6-m\libc_nano.a(lib_a-init.o)
__preinit_array_start                             c:/program files (x86)/atollic/truestudio for arm 8.0.0/armtools/bin/../lib/gcc/arm-atollic-eabi/6.3.1/../../../../arm-atollic-eabi/lib/armv6-m\libc_nano.a(lib_a-init.o)
__register_frame_info                             c:/program files (x86)/atollic/truestudio for arm 8.0.0/armtools/bin/../lib/gcc/arm-atollic-eabi/6.3.1/armv6-m/crtbegin.o
__sf_fake_stderr                                  c:/program files (x86)/atollic/truestudio for arm 8.0.0/armtools/bin/../lib/gcc/arm-atollic-eabi/6.3.1/../../../../arm-atollic-eabi/lib/armv6-m\libc_nano.a(lib_a-impure.o)
__sf_fake_stdin                                   c:/program files (x86)/atollic/truestudio for arm 8.0.0/armtools/bin/../lib/gcc/arm-atollic-eabi/6.3.1/../../../../arm-atollic-eabi/lib/armv6-m\libc_nano.a(lib_a-impure.o)
__sf_fake_stdout                                  c:/program files (x86)/atollic/truestudio for arm 8.0.0/armtools/bin/../lib/gcc/arm-atollic-eabi/6.3.1/../../../../arm-atollic-eabi/lib/armv6-m\libc_nano.a(lib_a-impure.o)
__udivsi3                                         c:/program files (x86)/atollic/truestudio for arm 8.0.0/armtools/bin/../lib/gcc/arm-atollic-eabi/6.3.1/armv6-m\libgcc.a(_udivsi3.o)
_close                                            src\syscalls.o
_delay_ms                                         src\main.o
                                                  src\grbl\nuts_bolts.o
_ebss                                             src\startup_stm32f051.o
_edata                                            src\startup_stm32f051.o
_estack                                           src\startup_stm32f051.o
_execve                                           src\syscalls.o
_exit                                             src\syscalls.o
_fini                                             c:/program files (x86)/atollic/truestudio for arm 8.0.0/armtools/bin/../lib/gcc/arm-atollic-eabi/6.3.1/armv6-m/crti.o
_fork                                             src\syscalls.o
_free_r                                           c:/program files (x86)/atollic/truestudio for arm 8.0.0/armtools/bin/../lib/gcc/arm-atollic-eabi/6.3.1/../../../../arm-atollic-eabi/lib/armv6-m\libc_nano.a(lib_a-nano-freer.o)
                                                  c:/program files (x86)/atollic/truestudio for arm 8.0.0/armtools/bin/../lib/gcc/arm-atollic-eabi/6.3.1/../../../../arm-atollic-eabi/lib/armv6-m\libc_nano.a(lib_a-reent.o)
_fstat                                            src\syscalls.o
_getpid                                           src\syscalls.o
_gettimeofday                                     src\syscalls.o
_global_impure_ptr                                c:/program files (x86)/atollic/truestudio for arm 8.0.0/armtools/bin/../lib/gcc/arm-atollic-eabi/6.3.1/../../../../arm-atollic-eabi/lib/armv6-m\libc_nano.a(lib_a-impure.o)
_impure_ptr                                       c:/program files (x86)/atollic/truestudio for arm 8.0.0/armtools/bin/../lib/gcc/arm-atollic-eabi/6.3.1/../../../../arm-atollic-eabi/lib/armv6-m\libc_nano.a(lib_a-impure.o)
                                                  c:/program files (x86)/atollic/truestudio for arm 8.0.0/armtools/bin/../lib/gcc/arm-atollic-eabi/6.3.1/../../../../arm-atollic-eabi/lib/armv6-m\libc_nano.a(lib_a-errno.o)
                                                  c:/program files (x86)/atollic/truestudio for arm 8.0.0/armtools/bin/../lib/gcc/arm-atollic-eabi/6.3.1/../../../../arm-atollic-eabi/lib/armv6-m\libc_nano.a(lib_a-reent.o)
_init                                             c:/program files (x86)/atollic/truestudio for arm 8.0.0/armtools/bin/../lib/gcc/arm-atollic-eabi/6.3.1/armv6-m/crti.o
                                                  c:/program files (x86)/atollic/truestudio for arm 8.0.0/armtools/bin/../lib/gcc/arm-atollic-eabi/6.3.1/../../../../arm-atollic-eabi/lib/armv6-m\libc_nano.a(lib_a-init.o)
_isatty                                           src\syscalls.o
_kill                                             src\syscalls.o
_link                                             src\syscalls.o
_lseek                                            src\syscalls.o
_malloc_r                                         c:/program files (x86)/atollic/truestudio for arm 8.0.0/armtools/bin/../lib/gcc/arm-atollic-eabi/6.3.1/../../../../arm-atollic-eabi/lib/armv6-m\libc_nano.a(lib_a-nano-mallocr.o)
_open                                             src\syscalls.o
_read                                             src\syscalls.o
_readlink                                         src\syscalls.o
_reclaim_reent                                    c:/program files (x86)/atollic/truestudio for arm 8.0.0/armtools/bin/../lib/gcc/arm-atollic-eabi/6.3.1/../../../../arm-atollic-eabi/lib/armv6-m\libc_nano.a(lib_a-reent.o)
_sbrk                                             src\syscalls.o
                                                  c:/program files (x86)/atollic/truestudio for arm 8.0.0/armtools/bin/../lib/gcc/arm-atollic-eabi/6.3.1/../../../../arm-atollic-eabi/lib/armv6-m\libc_nano.a(lib_a-sbrkr.o)
_sbrk_r                                           c:/program files (x86)/atollic/truestudio for arm 8.0.0/armtools/bin/../lib/gcc/arm-atollic-eabi/6.3.1/../../../../arm-atollic-eabi/lib/armv6-m\libc_nano.a(lib_a-sbrkr.o)
                                                  c:/program files (x86)/atollic/truestudio for arm 8.0.0/armtools/bin/../lib/gcc/arm-atollic-eabi/6.3.1/../../../../arm-atollic-eabi/lib/armv6-m\libc_nano.a(lib_a-nano-mallocr.o)
_sbss                                             src\startup_stm32f051.o
_sdata                                            src\startup_stm32f051.o
_sidata                                           src\startup_stm32f051.o
_stat                                             src\syscalls.o
_symlink                                          src\syscalls.o
_times                                            src\syscalls.o
_unlink                                           src\syscalls.o
_wait                                             src\syscalls.o
_write                                            src\syscalls.o
                                                  src\tiny_printf.o
atan2f                                            c:/program files (x86)/atollic/truestudio for arm 8.0.0/armtools/bin/../lib/gcc/arm-atollic-eabi/6.3.1/../../../../arm-atollic-eabi/lib/armv6-m\libm.a(lib_a-wf_atan2.o)
                                                  src\grbl\motion_control.o
atanf                                             c:/program files (x86)/atollic/truestudio for arm 8.0.0/armtools/bin/../lib/gcc/arm-atollic-eabi/6.3.1/../../../../arm-atollic-eabi/lib/armv6-m\libm.a(lib_a-sf_atan.o)
                                                  c:/program files (x86)/atollic/truestudio for arm 8.0.0/armtools/bin/../lib/gcc/arm-atollic-eabi/6.3.1/../../../../arm-atollic-eabi/lib/armv6-m\libm.a(lib_a-ef_atan2.o)
ceilf                                             c:/program files (x86)/atollic/truestudio for arm 8.0.0/armtools/bin/../lib/gcc/arm-atollic-eabi/6.3.1/../../../../arm-atollic-eabi/lib/armv6-m\libm.a(lib_a-sf_ceil.o)
                                                  src\grbl\stepper.o
                                                  src\grbl\nuts_bolts.o
cleanup_glue                                      c:/program files (x86)/atollic/truestudio for arm 8.0.0/armtools/bin/../lib/gcc/arm-atollic-eabi/6.3.1/../../../../arm-atollic-eabi/lib/armv6-m\libc_nano.a(lib_a-reent.o)
convert_delta_vector_to_unit_vector               src\grbl\nuts_bolts.o
                                                  src\grbl\planner.o
coolant_get_state                                 src\grbl\coolant_control.o
                                                  src\grbl\report.o
coolant_init                                      src\grbl\coolant_control.o
coolant_set_state                                 src\grbl\coolant_control.o
                                                  src\grbl\protocol.o
                                                  src\grbl\gcode.o
coolant_stop                                      src\grbl\coolant_control.o
                                                  src\grbl\motion_control.o
coolant_sync                                      src\grbl\coolant_control.o
                                                  src\grbl\gcode.o
copysignf                                         c:/program files (x86)/atollic/truestudio for arm 8.0.0/armtools/bin/../lib/gcc/arm-atollic-eabi/6.3.1/../../../../arm-atollic-eabi/lib/armv6-m\libm.a(lib_a-sf_copysign.o)
                                                  c:/program files (x86)/atollic/truestudio for arm 8.0.0/armtools/bin/../lib/gcc/arm-atollic-eabi/6.3.1/../../../../arm-atollic-eabi/lib/armv6-m\libm.a(lib_a-sf_scalbn.o)
cosf                                              c:/program files (x86)/atollic/truestudio for arm 8.0.0/armtools/bin/../lib/gcc/arm-atollic-eabi/6.3.1/../../../../arm-atollic-eabi/lib/armv6-m\libm.a(lib_a-sf_cos.o)
                                                  src\grbl\motion_control.o
delay_ms                                          src\grbl\nuts_bolts.o
                                                  src\grbl\stepper.o
                                                  src\grbl\report.o
                                                  src\grbl\limits.o
delay_sec                                         src\grbl\nuts_bolts.o
                                                  src\grbl\protocol.o
                                                  src\grbl\motion_control.o
direction_pin_mask                                src\grbl\stepper.o
                                                  src\grbl\planner.o
eeprom_get_char                                   src\grbl\eeprom.o
                                                  src\grbl\settings.o
eeprom_put_char                                   src\grbl\eeprom.o
                                                  src\grbl\settings.o
end                                               src\syscalls.o
environ                                           src\syscalls.o
errno                                             c:/program files (x86)/atollic/truestudio for arm 8.0.0/armtools/bin/../lib/gcc/arm-atollic-eabi/6.3.1/../../../../arm-atollic-eabi/lib/armv6-m\libc_nano.a(lib_a-reent.o)
                                                  c:/program files (x86)/atollic/truestudio for arm 8.0.0/armtools/bin/../lib/gcc/arm-atollic-eabi/6.3.1/../../../../arm-atollic-eabi/lib/armv6-m\libc_nano.a(lib_a-sbrkr.o)
                                                  src\syscalls.o
fabsf                                             c:/program files (x86)/atollic/truestudio for arm 8.0.0/armtools/bin/../lib/gcc/arm-atollic-eabi/6.3.1/../../../../arm-atollic-eabi/lib/armv6-m\libm.a(lib_a-sf_fabs.o)
                                                  c:/program files (x86)/atollic/truestudio for arm 8.0.0/armtools/bin/../lib/gcc/arm-atollic-eabi/6.3.1/../../../../arm-atollic-eabi/lib/armv6-m\libm.a(lib_a-sf_atan.o)
                                                  c:/program files (x86)/atollic/truestudio for arm 8.0.0/armtools/bin/../lib/gcc/arm-atollic-eabi/6.3.1/../../../../arm-atollic-eabi/lib/armv6-m\libm.a(lib_a-ef_rem_pio2.o)
                                                  c:/program files (x86)/atollic/truestudio for arm 8.0.0/armtools/bin/../lib/gcc/arm-atollic-eabi/6.3.1/../../../../arm-atollic-eabi/lib/armv6-m\libm.a(lib_a-ef_atan2.o)
fiprintf                                          src\tiny_printf.o
floorf                                            c:/program files (x86)/atollic/truestudio for arm 8.0.0/armtools/bin/../lib/gcc/arm-atollic-eabi/6.3.1/../../../../arm-atollic-eabi/lib/armv6-m\libm.a(lib_a-sf_floor.o)
                                                  c:/program files (x86)/atollic/truestudio for arm 8.0.0/armtools/bin/../lib/gcc/arm-atollic-eabi/6.3.1/../../../../arm-atollic-eabi/lib/armv6-m\libm.a(lib_a-kf_rem_pio2.o)
                                                  src\grbl\spindle_control.o
                                                  src\grbl\motion_control.o
fprintf                                           src\tiny_printf.o
fputs                                             src\tiny_printf.o
fwrite                                            src\tiny_printf.o
g_pfnVectors                                      src\startup_stm32f051.o
gc_block                                          src\grbl\gcode.o
gc_execute_line                                   src\grbl\gcode.o
                                                  src\grbl\system.o
                                                  src\grbl\protocol.o
gc_init                                           src\grbl\gcode.o
                                                  src\main.o
gc_state                                          src\grbl\gcode.o
                                                  src\grbl\report.o
                                                  src\grbl\protocol.o
gc_sync_position                                  src\grbl\gcode.o
                                                  src\main.o
                                                  src\grbl\protocol.o
                                                  src\grbl\motion_control.o
hypot_f                                           src\grbl\nuts_bolts.o
                                                  src\grbl\gcode.o
initialise_monitor_handles                        src\syscalls.o
iprintf                                           src\tiny_printf.o
jog_execute                                       src\grbl\jog.o
                                                  src\grbl\gcode.o
limit_pin_mask                                    src\grbl\stepper.o
                                                  src\grbl\limits.o
limit_value_by_axis_maximum                       src\grbl\nuts_bolts.o
                                                  src\grbl\planner.o
limits_disable                                    src\grbl\limits.o
                                                  src\grbl\motion_control.o
limits_get_state                                  src\grbl\limits.o
                                                  src\grbl\report.o
                                                  src\grbl\protocol.o
limits_go_home                                    src\grbl\limits.o
                                                  src\grbl\motion_control.o
limits_init                                       src\grbl\limits.o
                                                  src\main.o
                                                  src\grbl\settings.o
                                                  src\grbl\motion_control.o
limits_soft_check                                 src\grbl\limits.o
                                                  src\grbl\motion_control.o
lookUpIndex                                       src\grbl\stepper.o
lround                                            c:/program files (x86)/atollic/truestudio for arm 8.0.0/armtools/bin/../lib/gcc/arm-atollic-eabi/6.3.1/../../../../arm-atollic-eabi/lib/armv6-m\libm.a(lib_a-s_lround.o)
                                                  src\grbl\planner.o
                                                  src\grbl\limits.o
main                                              src\main.o
                                                  src\startup_stm32f051.o
matherr                                           c:/program files (x86)/atollic/truestudio for arm 8.0.0/armtools/bin/../lib/gcc/arm-atollic-eabi/6.3.1/../../../../arm-atollic-eabi/lib/armv6-m\libm.a(lib_a-s_matherr.o)
                                                  c:/program files (x86)/atollic/truestudio for arm 8.0.0/armtools/bin/../lib/gcc/arm-atollic-eabi/6.3.1/../../../../arm-atollic-eabi/lib/armv6-m\libm.a(lib_a-wf_sqrt.o)
mc_arc                                            src\grbl\motion_control.o
                                                  src\grbl\gcode.o
mc_dwell                                          src\grbl\motion_control.o
                                                  src\grbl\gcode.o
mc_homing_cycle                                   src\grbl\motion_control.o
                                                  src\grbl\system.o
mc_line                                           src\grbl\motion_control.o
                                                  src\grbl\jog.o
                                                  src\grbl\gcode.o
mc_probe_cycle                                    src\grbl\motion_control.o
                                                  src\grbl\gcode.o
mc_reset                                          src\grbl\motion_control.o
                                                  src\grbl\system.o
                                                  src\grbl\serial.o
                                                  src\grbl\limits.o
memcmp                                            c:/program files (x86)/atollic/truestudio for arm 8.0.0/armtools/bin/../lib/gcc/arm-atollic-eabi/6.3.1/../../../../arm-atollic-eabi/lib/armv6-m\libc_nano.a(lib_a-memcmp.o)
                                                  src\grbl\gcode.o
memcpy                                            c:/program files (x86)/atollic/truestudio for arm 8.0.0/armtools/bin/../lib/gcc/arm-atollic-eabi/6.3.1/../../../../arm-atollic-eabi/lib/armv6-m\libc_nano.a(lib_a-memcpy-stub.o)
                                                  src\grbl\gcode.o
memcpy_from_eeprom_with_checksum                  src\grbl\eeprom.o
                                                  src\grbl\settings.o
memcpy_to_eeprom_with_checksum                    src\grbl\eeprom.o
                                                  src\grbl\settings.o
memset                                            c:/program files (x86)/atollic/truestudio for arm 8.0.0/armtools/bin/../lib/gcc/arm-atollic-eabi/6.3.1/../../../../arm-atollic-eabi/lib/armv6-m\libc_nano.a(lib_a-memset.o)
                                                  src\main.o
                                                  src\grbl\stepper.o
                                                  src\grbl\spindle_control.o
                                                  src\grbl\settings.o
                                                  src\grbl\planner.o
                                                  src\grbl\limits.o
                                                  src\grbl\gcode.o
plan_buffer_line                                  src\grbl\planner.o
                                                  src\grbl\motion_control.o
                                                  src\grbl\limits.o
plan_check_full_buffer                            src\grbl\planner.o
                                                  src\grbl\motion_control.o
plan_compute_profile_nominal_speed                src\grbl\planner.o
                                                  src\grbl\stepper.o
plan_cycle_reinitialize                           src\grbl\planner.o
                                                  src\grbl\protocol.o
plan_discard_current_block                        src\grbl\planner.o
                                                  src\grbl\stepper.o
plan_get_block_buffer_available                   src\grbl\planner.o
                                                  src\grbl\report.o
plan_get_block_buffer_count                       src\grbl\planner.o
plan_get_current_block                            src\grbl\planner.o
                                                  src\grbl\stepper.o
                                                  src\grbl\protocol.o
                                                  src\grbl\jog.o
plan_get_exec_block_exit_speed_sqr                src\grbl\planner.o
                                                  src\grbl\stepper.o
plan_get_system_motion_block                      src\grbl\planner.o
                                                  src\grbl\stepper.o
plan_next_block_index                             src\grbl\planner.o
plan_reset                                        src\grbl\planner.o
                                                  src\main.o
                                                  src\grbl\protocol.o
                                                  src\grbl\motion_control.o
plan_reset_buffer                                 src\grbl\planner.o
plan_sync_position                                src\grbl\planner.o
                                                  src\main.o
                                                  src\grbl\protocol.o
                                                  src\grbl\motion_control.o
plan_update_velocity_profile_parameters           src\grbl\planner.o
                                                  src\grbl\protocol.o
printFloat                                        src\grbl\print.o
                                                  src\grbl\report.o
printFloat_CoordValue                             src\grbl\print.o
                                                  src\grbl\report.o
printFloat_RateValue                              src\grbl\print.o
                                                  src\grbl\report.o
printInteger                                      src\grbl\print.o
printString                                       src\grbl\print.o
                                                  src\grbl\report.o
print_uint32_base10                               src\grbl\print.o
print_uint8_base10                                src\grbl\print.o
                                                  src\grbl\report.o
print_uint8_base2_ndigit                          src\grbl\print.o
printf                                            src\tiny_printf.o
probe_configure_invert_mask                       src\grbl\probe.o
                                                  src\grbl\settings.o
                                                  src\grbl\motion_control.o
probe_get_state                                   src\grbl\probe.o
                                                  src\grbl\report.o
                                                  src\grbl\motion_control.o
probe_init                                        src\grbl\probe.o
                                                  src\main.o
probe_invert_mask                                 src\grbl\probe.o
probe_state_monitor                               src\grbl\probe.o
                                                  src\grbl\stepper.o
protocol_auto_cycle_start                         src\grbl\protocol.o
                                                  src\grbl\motion_control.o
protocol_buffer_synchronize                       src\grbl\protocol.o
                                                  src\grbl\system.o
                                                  src\grbl\spindle_control.o
                                                  src\grbl\settings.o
                                                  src\grbl\motion_control.o
                                                  src\grbl\gcode.o
                                                  src\grbl\coolant_control.o
protocol_exec_rt_system                           src\grbl\protocol.o
                                                  src\grbl\nuts_bolts.o
protocol_execute_realtime                         src\grbl\protocol.o
                                                  src\grbl\nuts_bolts.o
                                                  src\grbl\motion_control.o
                                                  src\grbl\limits.o
                                                  src\grbl\gcode.o
protocol_main_loop                                src\grbl\protocol.o
                                                  src\main.o
puts                                              src\tiny_printf.o
read_float                                        src\grbl\nuts_bolts.o
                                                  src\grbl\system.o
                                                  src\grbl\gcode.o
read_global_settings                              src\grbl\settings.o
report_alarm_message                              src\grbl\report.o
                                                  src\grbl\protocol.o
report_build_info                                 src\grbl\report.o
                                                  src\grbl\system.o
report_echo_line_received                         src\grbl\report.o
report_execute_startup_message                    src\grbl\report.o
                                                  src\grbl\system.o
report_feedback_message                           src\grbl\report.o
                                                  src\grbl\system.o
                                                  src\grbl\protocol.o
                                                  src\grbl\gcode.o
report_gcode_modes                                src\grbl\report.o
                                                  src\grbl\system.o
report_grbl_help                                  src\grbl\report.o
                                                  src\grbl\system.o
report_grbl_settings                              src\grbl\report.o
                                                  src\grbl\system.o
                                                  src\grbl\settings.o
report_init_message                               src\grbl\report.o
                                                  src\main.o
report_ngc_parameters                             src\grbl\report.o
                                                  src\grbl\system.o
report_probe_parameters                           src\grbl\report.o
                                                  src\grbl\motion_control.o
report_realtime_status                            src\grbl\report.o
                                                  src\grbl\protocol.o
report_startup_line                               src\grbl\report.o
                                                  src\grbl\system.o
report_status_message                             src\grbl\report.o
                                                  src\grbl\system.o
                                                  src\grbl\settings.o
                                                  src\grbl\protocol.o
                                                  src\grbl\gcode.o
report_util_setting_prefix                        src\grbl\report.o
roundf                                            c:/program files (x86)/atollic/truestudio for arm 8.0.0/armtools/bin/../lib/gcc/arm-atollic-eabi/6.3.1/../../../../arm-atollic-eabi/lib/armv6-m\libm.a(lib_a-sf_round.o)
                                                  src\grbl\gcode.o
scalbnf                                           c:/program files (x86)/atollic/truestudio for arm 8.0.0/armtools/bin/../lib/gcc/arm-atollic-eabi/6.3.1/../../../../arm-atollic-eabi/lib/armv6-m\libm.a(lib_a-sf_scalbn.o)
                                                  c:/program files (x86)/atollic/truestudio for arm 8.0.0/armtools/bin/../lib/gcc/arm-atollic-eabi/6.3.1/../../../../arm-atollic-eabi/lib/armv6-m\libm.a(lib_a-kf_rem_pio2.o)
serial_get_rx_buffer_available                    src\grbl\serial.o
                                                  src\grbl\report.o
serial_get_rx_buffer_count                        src\grbl\serial.o
serial_get_tx_buffer_count                        src\grbl\serial.o
serial_init                                       src\grbl\serial.o
                                                  src\main.o
serial_read                                       src\grbl\serial.o
                                                  src\grbl\protocol.o
serial_reset_read_buffer                          src\grbl\serial.o
                                                  src\main.o
serial_rx_buffer                                  src\grbl\serial.o
serial_rx_buffer_head                             src\grbl\serial.o
serial_rx_buffer_tail                             src\grbl\serial.o
serial_tx_buffer                                  src\grbl\serial.o
serial_tx_buffer_head                             src\grbl\serial.o
serial_tx_buffer_tail                             src\grbl\serial.o
serial_write                                      src\grbl\serial.o
                                                  src\grbl\report.o
                                                  src\grbl\print.o
settings                                          src\grbl\settings.o
                                                  src\main.o
                                                  src\grbl\system.o
                                                  src\grbl\stepper.o
                                                  src\grbl\spindle_control.o
                                                  src\grbl\report.o
                                                  src\grbl\protocol.o
                                                  src\grbl\probe.o
                                                  src\grbl\print.o
                                                  src\grbl\planner.o
                                                  src\grbl\motion_control.o
                                                  src\grbl\limits.o
                                                  src\grbl\jog.o
                                                  src\grbl\gcode.o
settings_init                                     src\grbl\settings.o
                                                  src\main.o
settings_read_build_info                          src\grbl\settings.o
                                                  src\grbl\system.o
settings_read_coord_data                          src\grbl\settings.o
                                                  src\grbl\report.o
                                                  src\grbl\gcode.o
settings_read_startup_line                        src\grbl\settings.o
                                                  src\grbl\system.o
settings_restore                                  src\grbl\settings.o
                                                  src\grbl\system.o
settings_store_build_info                         src\grbl\settings.o
                                                  src\grbl\system.o
settings_store_global_setting                     src\grbl\settings.o
                                                  src\grbl\system.o
settings_store_startup_line                       src\grbl\settings.o
                                                  src\grbl\system.o
settings_write_coord_data                         src\grbl\settings.o
                                                  src\grbl\gcode.o
sinf                                              c:/program files (x86)/atollic/truestudio for arm 8.0.0/armtools/bin/../lib/gcc/arm-atollic-eabi/6.3.1/../../../../arm-atollic-eabi/lib/armv6-m\libm.a(lib_a-sf_sin.o)
                                                  src\grbl\motion_control.o
siprintf                                          src\tiny_printf.o
spindle_compute_pwm_value                         src\grbl\spindle_control.o
                                                  src\grbl\stepper.o
spindle_get_state                                 src\grbl\spindle_control.o
                                                  src\grbl\report.o
spindle_init                                      src\grbl\spindle_control.o
                                                  src\main.o
                                                  src\grbl\settings.o
spindle_set_speed                                 src\grbl\spindle_control.o
                                                  src\grbl\stepper.o
spindle_set_state                                 src\grbl\spindle_control.o
                                                  src\grbl\protocol.o
                                                  src\grbl\gcode.o
spindle_stop                                      src\grbl\spindle_control.o
                                                  src\grbl\motion_control.o
spindle_sync                                      src\grbl\spindle_control.o
                                                  src\grbl\motion_control.o
                                                  src\grbl\gcode.o
sprintf                                           src\tiny_printf.o
sqrtf                                             c:/program files (x86)/atollic/truestudio for arm 8.0.0/armtools/bin/../lib/gcc/arm-atollic-eabi/6.3.1/../../../../arm-atollic-eabi/lib/armv6-m\libm.a(lib_a-wf_sqrt.o)
                                                  src\grbl\stepper.o
                                                  src\grbl\planner.o
                                                  src\grbl\nuts_bolts.o
                                                  src\grbl\motion_control.o
                                                  src\grbl\limits.o
                                                  src\grbl\gcode.o
st_generate_step_dir_invert_masks                 src\grbl\stepper.o
                                                  src\grbl\settings.o
st_get_realtime_rate                              src\grbl\stepper.o
                                                  src\grbl\report.o
st_go_idle                                        src\grbl\stepper.o
                                                  src\grbl\system.o
                                                  src\grbl\protocol.o
                                                  src\grbl\motion_control.o
st_prep_buffer                                    src\grbl\stepper.o
                                                  src\grbl\protocol.o
                                                  src\grbl\limits.o
                                                  src\grbl\jog.o
st_reset                                          src\grbl\stepper.o
                                                  src\main.o
                                                  src\grbl\protocol.o
                                                  src\grbl\motion_control.o
                                                  src\grbl\limits.o
st_update_plan_block_parameters                   src\grbl\stepper.o
                                                  src\grbl\protocol.o
                                                  src\grbl\planner.o
st_wake_up                                        src\grbl\stepper.o
                                                  src\grbl\protocol.o
                                                  src\grbl\limits.o
                                                  src\grbl\jog.o
step_pin_mask                                     src\grbl\stepper.o
                                                  src\grbl\limits.o
stepper_init                                      src\grbl\stepper.o
                                                  src\main.o
strlen                                            c:/program files (x86)/atollic/truestudio for arm 8.0.0/armtools/bin/../lib/gcc/arm-atollic-eabi/6.3.1/../../../../arm-atollic-eabi/lib/armv6-m\libc_nano.a(lib_a-strlen.o)
                                                  src\tiny_printf.o
sys                                               src\main.o
                                                  src\grbl\system.o
                                                  src\grbl\stepper.o
                                                  src\grbl\spindle_control.o
                                                  src\grbl\serial.o
                                                  src\grbl\report.o
                                                  src\grbl\protocol.o
                                                  src\grbl\planner.o
                                                  src\grbl\nuts_bolts.o
                                                  src\grbl\motion_control.o
                                                  src\grbl\limits.o
                                                  src\grbl\jog.o
                                                  src\grbl\gcode.o
                                                  src\grbl\coolant_control.o
sys_position                                      src\main.o
                                                  src\grbl\stepper.o
                                                  src\grbl\report.o
                                                  src\grbl\probe.o
                                                  src\grbl\planner.o
                                                  src\grbl\motion_control.o
                                                  src\grbl\limits.o
                                                  src\grbl\gcode.o
sys_probe_position                                src\main.o
                                                  src\grbl\report.o
                                                  src\grbl\probe.o
                                                  src\grbl\motion_control.o
sys_probe_state                                   src\main.o
                                                  src\grbl\stepper.o
                                                  src\grbl\probe.o
                                                  src\grbl\motion_control.o
sys_rt_exec_accessory_override                    src\main.o
                                                  src\grbl\system.o
                                                  src\grbl\protocol.o
sys_rt_exec_alarm                                 src\main.o
                                                  src\grbl\system.o
                                                  src\grbl\stepper.o
                                                  src\grbl\protocol.o
                                                  src\grbl\motion_control.o
                                                  src\grbl\limits.o
sys_rt_exec_motion_override                       src\main.o
                                                  src\grbl\system.o
                                                  src\grbl\protocol.o
sys_rt_exec_state                                 src\main.o
                                                  src\grbl\system.o
                                                  src\grbl\protocol.o
                                                  src\grbl\probe.o
                                                  src\grbl\motion_control.o
                                                  src\grbl\limits.o
system_check_safety_door_ajar                     src\grbl\system.o
                                                  src\grbl\protocol.o
system_check_travel_limits                        src\grbl\system.o
                                                  src\grbl\limits.o
                                                  src\grbl\jog.o
system_clear_exec_accessory_overrides             src\grbl\system.o
                                                  src\grbl\protocol.o
system_clear_exec_alarm                           src\grbl\system.o
                                                  src\grbl\protocol.o
system_clear_exec_motion_overrides                src\grbl\system.o
                                                  src\grbl\protocol.o
system_clear_exec_state_flag                      src\grbl\system.o
                                                  src\grbl\protocol.o
                                                  src\grbl\limits.o
system_control_get_state                          src\grbl\system.o
                                                  src\grbl\report.o
system_convert_array_steps_to_mpos                src\grbl\system.o
                                                  src\grbl\report.o
                                                  src\grbl\limits.o
                                                  src\grbl\gcode.o
system_convert_axis_steps_to_mpos                 src\grbl\system.o
system_convert_corexy_to_x_axis_steps             src\grbl\system.o
                                                  src\grbl\planner.o
                                                  src\grbl\limits.o
system_convert_corexy_to_y_axis_steps             src\grbl\system.o
                                                  src\grbl\planner.o
                                                  src\grbl\limits.o
system_execute_line                               src\grbl\system.o
                                                  src\grbl\protocol.o
system_execute_startup                            src\grbl\system.o
                                                  src\grbl\protocol.o
system_flag_wco_change                            src\grbl\system.o
                                                  src\grbl\settings.o
                                                  src\grbl\gcode.o
system_init                                       src\grbl\system.o
                                                  src\main.o
system_set_exec_accessory_override_flag           src\grbl\system.o
                                                  src\grbl\serial.o
                                                  src\grbl\protocol.o
system_set_exec_alarm                             src\grbl\system.o
                                                  src\grbl\motion_control.o
                                                  src\grbl\limits.o
system_set_exec_motion_override_flag              src\grbl\system.o
                                                  src\grbl\serial.o
system_set_exec_state_flag                        src\grbl\system.o
                                                  src\grbl\stepper.o
                                                  src\grbl\serial.o
                                                  src\grbl\protocol.o
                                                  src\grbl\motion_control.o
                                                  src\grbl\limits.o
                                                  src\grbl\gcode.o
trunc                                             c:/program files (x86)/atollic/truestudio for arm 8.0.0/armtools/bin/../lib/gcc/arm-atollic-eabi/6.3.1/../../../../arm-atollic-eabi/lib/armv6-m\libm.a(lib_a-s_trunc.o)
                                                  src\grbl\system.o
                                                  src\grbl\settings.o
                                                  src\grbl\gcode.o
ts_formatlength                                   src\tiny_printf.o
ts_formatstring                                   src\tiny_printf.o
ts_itoa                                           src\tiny_printf.o
write_global_settings                             src\grbl\settings.o
